
pls.elf:     file format elf32-littlenios2
pls.elf
architecture: nios2:r1, flags 0x00000112:
EXEC_P, HAS_SYMS, D_PAGED
start address 0x00040234

Program Header:
    LOAD off    0x00001000 vaddr 0x00040000 paddr 0x00040000 align 2**12
         filesz 0x00000020 memsz 0x00000020 flags r-x
    LOAD off    0x00001020 vaddr 0x00040020 paddr 0x00040020 align 2**12
         filesz 0x00010acc memsz 0x00010acc flags r-x
    LOAD off    0x00011aec vaddr 0x00050aec paddr 0x00052604 align 2**12
         filesz 0x00001b18 memsz 0x00001b18 flags rw-
    LOAD off    0x0001411c vaddr 0x0005411c paddr 0x0005411c align 2**12
         filesz 0x00000000 memsz 0x00000160 flags rw-

Sections:
Idx Name          Size      VMA       LMA       File off  Algn
  0 .entry        00000020  00040000  00040000  00001000  2**5
                  CONTENTS, ALLOC, LOAD, READONLY, CODE
  1 .exceptions   00000214  00040020  00040020  00001020  2**2
                  CONTENTS, ALLOC, LOAD, READONLY, CODE
  2 .text         0001053c  00040234  00040234  00001234  2**2
                  CONTENTS, ALLOC, LOAD, READONLY, CODE
  3 .rodata       0000037c  00050770  00050770  00011770  2**2
                  CONTENTS, ALLOC, LOAD, READONLY, DATA
  4 .rwdata       00001b18  00050aec  00052604  00011aec  2**2
                  CONTENTS, ALLOC, LOAD, DATA, SMALL_DATA
  5 .bss          00000160  0005411c  0005411c  0001411c  2**2
                  ALLOC, SMALL_DATA
  6 .onchip_memory 00000000  0005427c  0005427c  00013604  2**0
                  CONTENTS
  7 .comment      00000023  00000000  00000000  00013604  2**0
                  CONTENTS, READONLY
  8 .debug_aranges 00000fe8  00000000  00000000  00013628  2**3
                  CONTENTS, READONLY, DEBUGGING
  9 .debug_info   0002933e  00000000  00000000  00014610  2**0
                  CONTENTS, READONLY, DEBUGGING
 10 .debug_abbrev 0000a310  00000000  00000000  0003d94e  2**0
                  CONTENTS, READONLY, DEBUGGING
 11 .debug_line   0000cad2  00000000  00000000  00047c5e  2**0
                  CONTENTS, READONLY, DEBUGGING
 12 .debug_frame  00002364  00000000  00000000  00054730  2**2
                  CONTENTS, READONLY, DEBUGGING
 13 .debug_str    00003c46  00000000  00000000  00056a94  2**0
                  CONTENTS, READONLY, DEBUGGING
 14 .debug_loc    000184d4  00000000  00000000  0005a6da  2**0
                  CONTENTS, READONLY, DEBUGGING
 15 .debug_alt_sim_info 00000010  00000000  00000000  00072bb0  2**2
                  CONTENTS, READONLY, DEBUGGING
 16 .debug_ranges 00001a10  00000000  00000000  00072bc0  2**3
                  CONTENTS, READONLY, DEBUGGING
 17 .thread_model 00000003  00000000  00000000  00077946  2**0
                  CONTENTS, READONLY
 18 .cpu          00000003  00000000  00000000  00077949  2**0
                  CONTENTS, READONLY
 19 .qsys         00000001  00000000  00000000  0007794c  2**0
                  CONTENTS, READONLY
 20 .simulation_enabled 00000001  00000000  00000000  0007794d  2**0
                  CONTENTS, READONLY
 21 .stderr_dev   00000009  00000000  00000000  0007794e  2**0
                  CONTENTS, READONLY
 22 .stdin_dev    00000009  00000000  00000000  00077957  2**0
                  CONTENTS, READONLY
 23 .stdout_dev   00000009  00000000  00000000  00077960  2**0
                  CONTENTS, READONLY
 24 .sopc_system_name 00000012  00000000  00000000  00077969  2**0
                  CONTENTS, READONLY
 25 .quartus_project_dir 0000001a  00000000  00000000  0007797b  2**0
                  CONTENTS, READONLY
 26 .jdi          00005009  00000000  00000000  00077995  2**0
                  CONTENTS, READONLY
 27 .sopcinfo     0006d462  00000000  00000000  0007c99e  2**0
                  CONTENTS, READONLY
SYMBOL TABLE:
00040000 l    d  .entry	00000000 .entry
00040020 l    d  .exceptions	00000000 .exceptions
00040234 l    d  .text	00000000 .text
00050770 l    d  .rodata	00000000 .rodata
00050aec l    d  .rwdata	00000000 .rwdata
0005411c l    d  .bss	00000000 .bss
0005427c l    d  .onchip_memory	00000000 .onchip_memory
00000000 l    d  .comment	00000000 .comment
00000000 l    d  .debug_aranges	00000000 .debug_aranges
00000000 l    d  .debug_info	00000000 .debug_info
00000000 l    d  .debug_abbrev	00000000 .debug_abbrev
00000000 l    d  .debug_line	00000000 .debug_line
00000000 l    d  .debug_frame	00000000 .debug_frame
00000000 l    d  .debug_str	00000000 .debug_str
00000000 l    d  .debug_loc	00000000 .debug_loc
00000000 l    d  .debug_alt_sim_info	00000000 .debug_alt_sim_info
00000000 l    d  .debug_ranges	00000000 .debug_ranges
00000000 l    df *ABS*	00000000 ../pls_bsp//obj/HAL/src/crt0.o
0004026c l       .text	00000000 alt_after_alt_main
00000000 l    df *ABS*	00000000 alt_irq_handler.c
00000000 l    df *ABS*	00000000 alt_instruction_exception_entry.c
00000000 l    df *ABS*	00000000 hello_world.c
00000000 l    df *ABS*	00000000 fclose.c
00000000 l    df *ABS*	00000000 fflush.c
00000000 l    df *ABS*	00000000 findfp.c
000407c4 l     F .text	00000008 __fp_unlock
000407d8 l     F .text	0000019c __sinit.part.1
00040974 l     F .text	00000008 __fp_lock
00000000 l    df *ABS*	00000000 fopen.c
00000000 l    df *ABS*	00000000 fprintf.c
00000000 l    df *ABS*	00000000 mallocr.c
00000000 l    df *ABS*	00000000 fseek.c
00000000 l    df *ABS*	00000000 fseeko.c
00000000 l    df *ABS*	00000000 fstatr.c
00000000 l    df *ABS*	00000000 fwalk.c
00000000 l    df *ABS*	00000000 getc.c
00000000 l    df *ABS*	00000000 impure.c
00050aec l     O .rwdata	00000424 impure_data
00000000 l    df *ABS*	00000000 int_errno.c
00000000 l    df *ABS*	00000000 makebuf.c
00000000 l    df *ABS*	00000000 mallocr.c
00000000 l    df *ABS*	00000000 memset.c
00000000 l    df *ABS*	00000000 openr.c
00000000 l    df *ABS*	00000000 puts.c
00000000 l    df *ABS*	00000000 refill.c
00042480 l     F .text	0000001c lflush
00000000 l    df *ABS*	00000000 rget.c
00000000 l    df *ABS*	00000000 sbrkr.c
00000000 l    df *ABS*	00000000 stdio.c
00000000 l    df *ABS*	00000000 strlen.c
00000000 l    df *ABS*	00000000 vfprintf.c
00050826 l     O .rodata	00000010 zeroes.4404
00044c18 l     F .text	000000bc __sbprintf
00050836 l     O .rodata	00000010 blanks.4403
00000000 l    df *ABS*	00000000 writer.c
00000000 l    df *ABS*	00000000 wsetup.c
00000000 l    df *ABS*	00000000 closer.c
00000000 l    df *ABS*	00000000 dtoa.c
00044edc l     F .text	00000228 quorem
00000000 l    df *ABS*	00000000 flags.c
00000000 l    df *ABS*	00000000 fvwrite.c
00000000 l    df *ABS*	00000000 isattyr.c
00000000 l    df *ABS*	00000000 locale.c
00051338 l     O .rwdata	00000020 lc_ctype_charset
00051318 l     O .rwdata	00000020 lc_message_charset
00051358 l     O .rwdata	00000038 lconv
00000000 l    df *ABS*	00000000 lseekr.c
00000000 l    df *ABS*	00000000 memchr.c
00000000 l    df *ABS*	00000000 memcpy.c
00000000 l    df *ABS*	00000000 memmove.c
00000000 l    df *ABS*	00000000 mprec.c
00050864 l     O .rodata	0000000c p05.2768
00000000 l    df *ABS*	00000000 readr.c
00000000 l    df *ABS*	00000000 mallocr.c
00000000 l    df *ABS*	00000000 s_fpclassify.c
00000000 l    df *ABS*	00000000 strcmp.c
00000000 l    df *ABS*	00000000 vfprintf.c
000489e4 l     F .text	000000fc __sprint_r.part.0
00050988 l     O .rodata	00000010 zeroes.4349
0004a020 l     F .text	000000bc __sbprintf
00050998 l     O .rodata	00000010 blanks.4348
00000000 l    df *ABS*	00000000 mallocr.c
00000000 l    df *ABS*	00000000 fputwc.c
00000000 l    df *ABS*	00000000 wbuf.c
00000000 l    df *ABS*	00000000 wcrtomb.c
00000000 l    df *ABS*	00000000 wctomb_r.c
00000000 l    df *ABS*	00000000 libgcc2.c
00000000 l    df *ABS*	00000000 libgcc2.c
00000000 l    df *ABS*	00000000 lib2-divmod.c
00000000 l    df *ABS*	00000000 lib2-mul.c
00000000 l    df *ABS*	00000000 adddf3.c
00000000 l    df *ABS*	00000000 divdf3.c
00000000 l    df *ABS*	00000000 eqdf2.c
00000000 l    df *ABS*	00000000 gedf2.c
00000000 l    df *ABS*	00000000 ledf2.c
00000000 l    df *ABS*	00000000 muldf3.c
00000000 l    df *ABS*	00000000 subdf3.c
00000000 l    df *ABS*	00000000 fixdfsi.c
00000000 l    df *ABS*	00000000 floatsidf.c
00000000 l    df *ABS*	00000000 floatunsidf.c
00000000 l    df *ABS*	00000000 libgcc2.c
00000000 l    df *ABS*	00000000 libgcc2.c
00000000 l    df *ABS*	00000000 alt_close.c
0004dd40 l     F .text	0000003c alt_get_errno
00000000 l    df *ABS*	00000000 alt_dev.c
0004de54 l     F .text	0000002c alt_dev_null_write
00000000 l    df *ABS*	00000000 alt_errno.c
00000000 l    df *ABS*	00000000 alt_fstat.c
0004de80 l     F .text	0000003c alt_get_errno
00000000 l    df *ABS*	00000000 alt_isatty.c
0004df74 l     F .text	0000003c alt_get_errno
00000000 l    df *ABS*	00000000 alt_load.c
0004e05c l     F .text	00000068 alt_load_section
00000000 l    df *ABS*	00000000 alt_lseek.c
0004e148 l     F .text	0000003c alt_get_errno
00000000 l    df *ABS*	00000000 alt_main.c
00000000 l    df *ABS*	00000000 alt_malloc_lock.c
00000000 l    df *ABS*	00000000 alt_open.c
0004e324 l     F .text	0000003c alt_get_errno
0004e360 l     F .text	000000ec alt_file_locked
00000000 l    df *ABS*	00000000 alt_read.c
0004e5a8 l     F .text	0000003c alt_get_errno
00000000 l    df *ABS*	00000000 alt_release_fd.c
00000000 l    df *ABS*	00000000 alt_sbrk.c
000525f4 l     O .rwdata	00000004 heap_end
00000000 l    df *ABS*	00000000 alt_write.c
0004e81c l     F .text	0000003c alt_get_errno
00000000 l    df *ABS*	00000000 alt_sys_init.c
0004e958 l     F .text	00000034 alt_dev_reg
00051538 l     O .rwdata	00001060 jtag_uart
00052598 l     O .rwdata	0000002c accelerometer_spi
00000000 l    df *ABS*	00000000 altera_avalon_jtag_uart_fd.c
00000000 l    df *ABS*	00000000 altera_avalon_jtag_uart_init.c
0004ec48 l     F .text	00000210 altera_avalon_jtag_uart_irq
0004ee58 l     F .text	000000a0 altera_avalon_jtag_uart_timeout
00000000 l    df *ABS*	00000000 altera_avalon_jtag_uart_ioctl.c
00000000 l    df *ABS*	00000000 altera_avalon_jtag_uart_read.c
00000000 l    df *ABS*	00000000 altera_avalon_jtag_uart_write.c
00000000 l    df *ABS*	00000000 altera_avalon_timer_sc.c
0004f490 l     F .text	0000007c alt_avalon_timer_sc_irq
00000000 l    df *ABS*	00000000 altera_up_avalon_accelerometer_spi.c
00000000 l    df *ABS*	00000000 alt_alarm_start.c
00000000 l    df *ABS*	00000000 alt_dcache_flush_all.c
00000000 l    df *ABS*	00000000 alt_dev_llist_insert.c
0004fa7c l     F .text	0000003c alt_get_errno
00000000 l    df *ABS*	00000000 alt_do_ctors.c
00000000 l    df *ABS*	00000000 alt_do_dtors.c
00000000 l    df *ABS*	00000000 alt_find_dev.c
00000000 l    df *ABS*	00000000 alt_find_file.c
00000000 l    df *ABS*	00000000 alt_get_fd.c
00000000 l    df *ABS*	00000000 alt_icache_flush_all.c
00000000 l    df *ABS*	00000000 alt_io_redirect.c
0004fe98 l     F .text	000000e4 alt_open_fd
00000000 l    df *ABS*	00000000 alt_irq_register.c
00000000 l    df *ABS*	00000000 alt_irq_vars.c
00000000 l    df *ABS*	00000000 alt_tick.c
00000000 l    df *ABS*	00000000 altera_nios2_gen2_irq.c
00000000 l    df *ABS*	00000000 atexit.c
00000000 l    df *ABS*	00000000 exit.c
00000000 l    df *ABS*	00000000 memcmp.c
00000000 l    df *ABS*	00000000 __atexit.c
00000000 l    df *ABS*	00000000 __call_atexit.c
00000000 l    df *ABS*	00000000 alt_exit.c
00054150 g     O .bss	00000004 alt_instruction_exception_handler
00048158 g     F .text	00000074 _mprec_log10
00048244 g     F .text	0000008c __any_on
00046d00 g     F .text	00000054 _isatty_r
00050870 g     O .rodata	00000028 __mprec_tinytens
0004e260 g     F .text	0000007c alt_main
000423ac g     F .text	000000c0 _puts_r
0005417c g     O .bss	00000100 alt_irq
00046e30 g     F .text	00000060 _lseek_r
00052604 g       *ABS*	00000000 __flash_rwdata_start
0004678c g     F .text	000000ac __sflags
0004c718 g     F .text	00000088 .hidden __eqdf2
0005427c g       *ABS*	00000000 __alt_heap_start
0004a518 g     F .text	0000009c _wcrtomb_r
00042824 g     F .text	0000005c __sseek
00040b24 g     F .text	00000010 __sinit
0004a3c0 g     F .text	00000140 __swbuf_r
00046d54 g     F .text	0000007c _setlocale_r
0004097c g     F .text	00000078 __sfmoreglue
0004e300 g     F .text	00000024 __malloc_unlock
000470bc g     F .text	0000015c memmove
00040b0c g     F .text	00000018 _cleanup
00047218 g     F .text	000000a8 _Balloc
0004c7a0 g     F .text	000000dc .hidden __gtdf2
0005031c g     F .text	00000024 altera_nios2_gen2_irq_init
00040000 g     F .entry	0000000c __reset
0004f6cc g     F .text	000000cc alt_up_accelerometer_spi_read_x_axis
00040020 g       *ABS*	00000000 __flash_exceptions_start
00041580 g     F .text	0000005c _fstat_r
0005411c g     O .bss	00000004 errno
000426e4 g     F .text	00000014 __srget
000427a0 g     F .text	00000008 __seofread
0005413c g     O .bss	00000004 alt_argv
0005a5c4 g       *ABS*	00000000 _gp
000513b8 g     O .rwdata	00000180 alt_fd_list
00041764 g     F .text	00000070 _getc_r
000417d4 g     F .text	00000088 getc
0004fc1c g     F .text	00000090 alt_find_dev
00046f74 g     F .text	00000148 memcpy
000407cc g     F .text	0000000c _cleanup_r
0004db58 g     F .text	000000dc .hidden __floatsidf
0004ff7c g     F .text	0000007c alt_io_redirect
0004c87c g     F .text	000000f4 .hidden __ltdf2
00050770 g       *ABS*	00000000 __DTOR_END__
0004246c g     F .text	00000014 puts
00050340 g     F .text	0000009c alt_exception_cause_generated_bad_addr
00048894 g     F .text	00000074 __fpclassifyd
000480b4 g     F .text	000000a4 __ratio
0004a004 g     F .text	0000001c __vfiprintf_internal
0004f050 g     F .text	0000021c altera_avalon_jtag_uart_read
0004b3b8 g     F .text	00000064 .hidden __udivsi3
0004dfb0 g     F .text	000000ac isatty
000508c0 g     O .rodata	000000c8 __mprec_tens
00046dd0 g     F .text	0000000c __locale_charset
00054128 g     O .bss	00000004 __malloc_top_pad
000525d4 g     O .rwdata	00000004 __mb_cur_max
00046e00 g     F .text	0000000c _localeconv_r
0004764c g     F .text	0000003c __i2b
00046838 g     F .text	000004c8 __sfvwrite_r
000426f8 g     F .text	00000054 _sbrk_r
000482d0 g     F .text	00000060 _read_r
000525ec g     O .rwdata	00000004 alt_max_fd
00040418 g     F .text	000000f0 _fclose_r
00040794 g     F .text	00000030 fflush
00054124 g     O .bss	00000004 __malloc_max_sbrked_mem
0004fff8 g     F .text	00000180 alt_irq_register
0004b49c g     F .text	000008ac .hidden __adddf3
00047e5c g     F .text	0000010c __b2d
0004acfc g     F .text	000005c4 .hidden __umoddi3
0004e184 g     F .text	000000dc lseek
000525c4 g     O .rwdata	00000004 _global_impure_ptr
00048330 g     F .text	00000564 _realloc_r
0005427c g       *ABS*	00000000 __bss_end
00050214 g     F .text	00000108 alt_tick
0004a700 g     F .text	000005fc .hidden __udivdi3
0004a31c g     F .text	00000024 _fputwc_r
00050898 g     O .rodata	00000028 __mprec_bigtens
00047430 g     F .text	00000104 __s2b
0004dc34 g     F .text	000000a8 .hidden __floatunsidf
00047b9c g     F .text	00000060 __mcmp
00040b44 g     F .text	00000018 __fp_lock_all
00050178 g     F .text	0000009c alt_alarm_stop
00054144 g     O .bss	00000004 alt_irq_active
00041120 g     F .text	00000444 _fseeko_r
000400fc g     F .exceptions	000000d8 alt_irq_handler
00051390 g     O .rwdata	00000028 alt_dev_null
0004fa5c g     F .text	00000020 alt_dcache_flush_all
00047534 g     F .text	00000068 __hi0bits
0004dad8 g     F .text	00000080 .hidden __fixdfsi
00052604 g       *ABS*	00000000 __ram_rwdata_end
00040000 g       *ABS*	00000000 __alt_mem_onchip_memory
000525e4 g     O .rwdata	00000008 alt_dev_list
0004e858 g     F .text	00000100 write
00050aec g       *ABS*	00000000 __ram_rodata_end
0004debc g     F .text	000000b8 fstat
00040ca8 g     F .text	00000024 fprintf
0004c87c g     F .text	000000f4 .hidden __ledf2
00047914 g     F .text	00000140 __pow5mult
00048af8 g     F .text	0000150c ___vfiprintf_internal_r
00054134 g     O .bss	00000004 __nlocale_changed
0004b41c g     F .text	00000058 .hidden __umodsi3
0005427c g       *ABS*	00000000 end
00041564 g     F .text	0000001c fseeko
00041104 g     F .text	0000001c fseek
0004eb94 g     F .text	000000b4 altera_avalon_jtag_uart_init
000401d4 g     F .exceptions	00000060 alt_instruction_exception_entry
00050770 g       *ABS*	00000000 __CTOR_LIST__
0006bf20 g       *ABS*	00000000 __alt_stack_pointer
0004f50c g     F .text	00000074 alt_avalon_timer_sc_init
0004dcdc g     F .text	00000064 .hidden __clzsi2
0004f26c g     F .text	00000224 altera_avalon_jtag_uart_write
00040b34 g     F .text	00000004 __sfp_lock_acquire
00046e90 g     F .text	000000e4 memchr
00042920 g     F .text	000022dc ___vfprintf_internal_r
00040df0 g     F .text	00000310 _free_r
00046ddc g     F .text	00000010 __locale_mb_cur_max
000505bc g     F .text	00000180 __call_exitprocs
00042670 g     F .text	00000074 __srget_r
00054130 g     O .bss	00000004 __mlocale_changed
000525cc g     O .rwdata	00000004 __malloc_sbrk_base
00040234 g     F .text	0000003c _start
00054148 g     O .bss	00000004 _alt_tick_rate
00047a54 g     F .text	00000148 __lshift
0005414c g     O .bss	00000004 _alt_nticks
0004e5e4 g     F .text	00000104 read
0004e9c4 g     F .text	0000006c alt_sys_init
0004f5bc g     F .text	00000044 alt_up_accelerometer_spi_read_address_register
0004234c g     F .text	00000060 _open_r
000504a4 g     F .text	00000118 __register_exitproc
00047688 g     F .text	0000028c __multiply
0004eef8 g     F .text	00000068 altera_avalon_jtag_uart_close
0004b474 g     F .text	00000028 .hidden __mulsi3
00050aec g       *ABS*	00000000 __ram_rwdata_start
00050770 g       *ABS*	00000000 __ram_rodata_start
00054154 g     O .bss	00000028 __malloc_current_mallinfo
00047f68 g     F .text	0000014c __d2b
0004ea30 g     F .text	00000060 altera_avalon_jtag_uart_read_fd
0004fdb4 g     F .text	000000c4 alt_get_fd
0004f798 g     F .text	000000cc alt_up_accelerometer_spi_read_y_axis
00044e88 g     F .text	00000054 _close_r
00050428 g     F .text	0000007c memcmp
0004eaf0 g     F .text	00000050 altera_avalon_jtag_uart_close_fd
0005427c g       *ABS*	00000000 __alt_stack_base
0004eb40 g     F .text	00000054 altera_avalon_jtag_uart_ioctl_fd
00044d34 g     F .text	00000154 __swsetup_r
0004bd48 g     F .text	000009d0 .hidden __divdf3
000409f4 g     F .text	00000118 __sfp
000481cc g     F .text	00000078 __copybits
00050f10 g     O .rwdata	00000408 __malloc_av_
00040b40 g     F .text	00000004 __sinit_lock_release
0004c970 g     F .text	0000086c .hidden __muldf3
0004274c g     F .text	00000054 __sread
0004fcac g     F .text	00000108 alt_find_file
0004fab8 g     F .text	000000a4 alt_dev_llist_insert
0004e2dc g     F .text	00000024 __malloc_lock
00040c80 g     F .text	00000028 _fprintf_r
0004e76c g     F .text	000000b0 sbrk
00040738 g     F .text	0000005c _fflush_r
0004a0dc g     F .text	000000dc _calloc_r
00040c68 g     F .text	00000018 fopen
0005411c g       *ABS*	00000000 __bss_start
00042224 g     F .text	00000128 memset
000402cc g     F .text	0000014c main
00054140 g     O .bss	00000004 alt_envp
00054120 g     O .bss	00000004 __malloc_max_total_mem
0004ea90 g     F .text	00000060 altera_avalon_jtag_uart_write_fd
0004a500 g     F .text	00000018 __swbuf
00042880 g     F .text	00000008 __sclose
0006bf20 g       *ABS*	00000000 __alt_heap_limit
00040508 g     F .text	00000014 fclose
00045104 g     F .text	00001688 _dtoa_r
00041a18 g     F .text	0000080c _malloc_r
0004a674 g     F .text	00000030 __ascii_wctomb
000525f0 g     O .rwdata	00000004 alt_errno
000415dc g     F .text	000000c4 _fwalk
0004b2c0 g     F .text	00000084 .hidden __divsi3
00040ccc g     F .text	00000124 _malloc_trim_r
00050770 g       *ABS*	00000000 __CTOR_END__
00048908 g     F .text	000000dc strcmp
00050770 g       *ABS*	00000000 __flash_rodata_start
00050770 g       *ABS*	00000000 __DTOR_LIST__
0004c718 g     F .text	00000088 .hidden __nedf2
0004e98c g     F .text	00000038 alt_irq_init
0004e6e8 g     F .text	00000084 alt_release_fd
000509a8 g     O .rodata	00000100 .hidden __clz_tab
0005412c g     O .bss	00000004 _PathLocale
00040270 g     F .text	0000005c send_coordinates
000503dc g     F .text	00000014 atexit
00044cd4 g     F .text	00000060 _write_r
00046e0c g     F .text	00000018 setlocale
000525c8 g     O .rwdata	00000004 _impure_ptr
00054138 g     O .bss	00000004 alt_argc
0004051c g     F .text	0000021c __sflush_r
0004fbbc g     F .text	00000060 _do_dtors
00046df8 g     F .text	00000008 __locale_cjk_lang
00041100 g     F .text	00000004 _fseek_r
0004249c g     F .text	000001d4 __srefill_r
00040020 g       .exceptions	00000000 alt_irq_entry
00047df8 g     F .text	00000064 __ulp
00040b5c g     F .text	00000018 __fp_unlock_all
000525dc g     O .rwdata	00000008 alt_fs_list
00040020 g       *ABS*	00000000 __ram_exceptions_start
0004f580 g     F .text	0000003c alt_up_accelerometer_spi_open_dev
00046e24 g     F .text	0000000c localeconv
00052604 g       *ABS*	00000000 _edata
0005427c g       *ABS*	00000000 _end
0004a1b8 g     F .text	00000164 __fputwc
00040234 g       *ABS*	00000000 __ram_exceptions_end
0004ef60 g     F .text	000000f0 altera_avalon_jtag_uart_ioctl
000427a8 g     F .text	0000007c __swrite
000525d0 g     O .rwdata	00000004 __malloc_trim_threshold
00046dec g     F .text	0000000c __locale_msgcharset
000503f0 g     F .text	00000038 exit
000416a0 g     F .text	000000c4 _fwalk_reent
00047bfc g     F .text	000001fc __mdiff
0004b344 g     F .text	00000074 .hidden __modsi3
0004f864 g     F .text	000000cc alt_up_accelerometer_spi_read_z_axis
0006bf20 g       *ABS*	00000000 __alt_data_end
00040020 g     F .exceptions	00000000 alt_exception
00040b38 g     F .text	00000004 __sfp_lock_release
00040b74 g     F .text	000000f4 _fopen_r
0005073c g     F .text	00000034 _exit
0004f930 g     F .text	0000012c alt_alarm_start
0004f600 g     F .text	00000068 alt_up_accelerometer_spi_read
0004f668 g     F .text	00000064 alt_up_accelerometer_spi_write
0004185c g     F .text	000001bc __smakebuf_r
00042888 g     F .text	00000098 strlen
0004e44c g     F .text	0000015c open
0004c7a0 g     F .text	000000dc .hidden __gedf2
000525d8 g     O .rwdata	00000004 __wctomb
00048ae0 g     F .text	00000018 __sprint_r
0004fe78 g     F .text	00000020 alt_icache_flush_all
000525f8 g     O .rwdata	00000004 alt_priority_mask
00044bfc g     F .text	0000001c __vfprintf_internal
0004a6a4 g     F .text	0000005c _wctomb_r
0004d1dc g     F .text	000008fc .hidden __subdf3
0004759c g     F .text	000000b0 __lo0bits
000525fc g     O .rwdata	00000008 alt_alarm_list
0004fb5c g     F .text	00000060 _do_ctors
0004a5b4 g     F .text	000000c0 wcrtomb
0004dd7c g     F .text	000000d8 close
0004e0c4 g     F .text	00000084 alt_load
0004a340 g     F .text	00000080 fputwc
00040b3c g     F .text	00000004 __sinit_lock_acquire
000472e8 g     F .text	00000148 __multadd
000472c0 g     F .text	00000028 _Bfree



Disassembly of section .entry:

00040000 <__reset>:
 * Jump to the _start entry point in the .text section if reset code
 * is allowed or if optimizing for RTL simulation.
 */
#if defined(ALT_ALLOW_CODE_AT_RESET) || defined(ALT_SIM_OPTIMIZE)
    /* Jump to the _start entry point in the .text section. */
    movhi r1, %hi(_start)
   40000:	00400134 	movhi	at,4
    ori r1, r1, %lo(_start)
   40004:	08408d14 	ori	at,at,564
    jmp r1
   40008:	0800683a 	jmp	at
	...

Disassembly of section .exceptions:

00040020 <alt_exception>:

#else /* ALT_EXCEPTION_STACK disabled */
        /* 
         * Reserve space on normal stack for registers about to be pushed.
         */
        addi  sp, sp, -76
   40020:	deffed04 	addi	sp,sp,-76
         * documentation for details).
         *
         * Leave a gap in the stack frame at 4(sp) for the muldiv handler to
         * store zero into.
         */
        stw   ra,  0(sp)
   40024:	dfc00015 	stw	ra,0(sp)
        stw   r1,   8(sp)
   40028:	d8400215 	stw	at,8(sp)
        stw   r2,  12(sp)
   4002c:	d8800315 	stw	r2,12(sp)
        stw   r3,  16(sp)
   40030:	d8c00415 	stw	r3,16(sp)
        stw   r4,  20(sp)
   40034:	d9000515 	stw	r4,20(sp)
        stw   r5,  24(sp)
   40038:	d9400615 	stw	r5,24(sp)
        stw   r6,  28(sp)
   4003c:	d9800715 	stw	r6,28(sp)
        stw   r7,  32(sp)
   40040:	d9c00815 	stw	r7,32(sp)
        rdctl r5, estatus   /* Read early to avoid usage stall */
   40044:	000b307a 	rdctl	r5,estatus
        stw   r8,  36(sp)
   40048:	da000915 	stw	r8,36(sp)
        stw   r9,  40(sp)
   4004c:	da400a15 	stw	r9,40(sp)
        stw   r10, 44(sp)
   40050:	da800b15 	stw	r10,44(sp)
        stw   r11, 48(sp)
   40054:	dac00c15 	stw	r11,48(sp)
        stw   r12, 52(sp)
   40058:	db000d15 	stw	r12,52(sp)
        stw   r13, 56(sp)
   4005c:	db400e15 	stw	r13,56(sp)
        stw   r14, 60(sp)
   40060:	db800f15 	stw	r14,60(sp)
        stw   r15, 64(sp)
   40064:	dbc01015 	stw	r15,64(sp)
        /*
         * ea-4 contains the address of the instruction being executed
         * when the exception occured. For interrupt exceptions, we will
         * will be re-issue the isntruction. Store it in 72(sp)
         */
        stw   r5,  68(sp)  /* estatus */
   40068:	d9401115 	stw	r5,68(sp)
        addi  r15, ea, -4  /* instruction that caused exception */
   4006c:	ebffff04 	addi	r15,ea,-4
        stw   r15,  72(sp)
   40070:	dbc01215 	stw	r15,72(sp)
#else
        /*
         * Test to see if the exception was a software exception or caused 
         * by an external interrupt, and vector accordingly.
         */
        rdctl r4, ipending
   40074:	0009313a 	rdctl	r4,ipending
        andi  r2, r5, 1
   40078:	2880004c 	andi	r2,r5,1
        beq   r2, zero, .Lnot_irq
   4007c:	10000326 	beq	r2,zero,4008c <alt_exception+0x6c>
        beq   r4, zero, .Lnot_irq
   40080:	20000226 	beq	r4,zero,4008c <alt_exception+0x6c>
        /*
         * Now that all necessary registers have been preserved, call 
         * alt_irq_handler() to process the interrupts.
         */

        call alt_irq_handler
   40084:	00400fc0 	call	400fc <alt_irq_handler>

        .section .exceptions.irqreturn, "xa"

        br    .Lexception_exit
   40088:	00000706 	br	400a8 <alt_exception+0x88>
         * upon completion, so we write ea (address of instruction *after*
         * the one where the exception occured) into 72(sp). The actual
         * instruction that caused the exception is written in r2, which these
         * handlers will utilize.
         */
        stw ea, 72(sp) /* EA is PC+4 so will skip over instruction causing exception */
   4008c:	df401215 	stw	ea,72(sp)
.Lunknown_16bit:
        addi.n r4, r4, 2 /* Need PC+2 to skip over instruction causing exception */
        stw r4, 72(sp)

#else /* CDX is not Enabled and all instructions are 32bits */
        ldw r2, -4(ea) /* Instruction value that caused exception */
   40090:	e8bfff17 	ldw	r2,-4(ea)
         * debugger is present) or go into an infinite loop since the
         * handling behavior is undefined; in that case we will not return here.
         */

        /* Load exception-causing address as first argument (r4) */
        addi   r4, ea, -4
   40094:	e93fff04 	addi	r4,ea,-4

        /* Call the instruction-exception entry */
        call   alt_instruction_exception_entry
   40098:	00401d40 	call	401d4 <alt_instruction_exception_entry>
         * instruction
         *
         * Return code was 0: Skip. The instruction after the exception is
         * already stored in 72(sp).
         */
        bne   r2, r0, .Lexception_exit
   4009c:	1000021e 	bne	r2,zero,400a8 <alt_exception+0x88>

        /*
         * Otherwise, modify 72(sp) to re-issue the instruction that caused the
         * exception.
         */
        addi  r15, ea, -4  /* instruction that caused exception */
   400a0:	ebffff04 	addi	r15,ea,-4
        stw   r15,  72(sp)
   400a4:	dbc01215 	stw	r15,72(sp)
        /* 
         * Restore the saved registers, so that all general purpose registers 
         * have been restored to their state at the time the interrupt occured.
         */

        ldw   r5,  68(sp)
   400a8:	d9401117 	ldw	r5,68(sp)
        ldw   ea,  72(sp)  /* This becomes the PC once eret is executed */
   400ac:	df401217 	ldw	ea,72(sp)
        ldw   ra,   0(sp)
   400b0:	dfc00017 	ldw	ra,0(sp)

        wrctl estatus, r5
   400b4:	2801707a 	wrctl	estatus,r5

        ldw   r1,   8(sp)
   400b8:	d8400217 	ldw	at,8(sp)
        ldw   r2,  12(sp)
   400bc:	d8800317 	ldw	r2,12(sp)
        ldw   r3,  16(sp)
   400c0:	d8c00417 	ldw	r3,16(sp)
        ldw   r4,  20(sp)
   400c4:	d9000517 	ldw	r4,20(sp)
        ldw   r5,  24(sp)
   400c8:	d9400617 	ldw	r5,24(sp)
        ldw   r6,  28(sp)
   400cc:	d9800717 	ldw	r6,28(sp)
        ldw   r7,  32(sp)
   400d0:	d9c00817 	ldw	r7,32(sp)

#if defined(ALT_EXCEPTION_STACK) && defined(ALT_STACK_CHECK)
        ldw   et, %gprel(alt_exception_old_stack_limit)(gp)
#endif

        ldw   r8,  36(sp)
   400d4:	da000917 	ldw	r8,36(sp)
        ldw   r9,  40(sp)
   400d8:	da400a17 	ldw	r9,40(sp)
        ldw   r10, 44(sp)
   400dc:	da800b17 	ldw	r10,44(sp)
        ldw   r11, 48(sp)
   400e0:	dac00c17 	ldw	r11,48(sp)
        ldw   r12, 52(sp)
   400e4:	db000d17 	ldw	r12,52(sp)
        ldw   r13, 56(sp)
   400e8:	db400e17 	ldw	r13,56(sp)
        ldw   r14, 60(sp)
   400ec:	db800f17 	ldw	r14,60(sp)
        ldw   r15, 64(sp)
   400f0:	dbc01017 	ldw	r15,64(sp)
        stw   et, %gprel(alt_stack_limit_value)(gp)
        stw   zero, %gprel(alt_exception_old_stack_limit)(gp)
#endif /* ALT_STACK_CHECK */
        ldw   sp,  76(sp)
#else /* ALT_EXCEPTION_STACK disabled */
        addi  sp, sp, 76
   400f4:	dec01304 	addi	sp,sp,76

        /*
         * Return to the interrupted instruction.
         */

        eret
   400f8:	ef80083a 	eret

000400fc <alt_irq_handler>:
 * instruction is present if the macro ALT_CI_INTERRUPT_VECTOR defined.
 */

void alt_irq_handler (void) __attribute__ ((section (".exceptions")));
void alt_irq_handler (void)
{
   400fc:	defff904 	addi	sp,sp,-28
   40100:	dfc00615 	stw	ra,24(sp)
   40104:	df000515 	stw	fp,20(sp)
   40108:	df000504 	addi	fp,sp,20
  
  /*
   * Notify the operating system that we are at interrupt level.
   */ 
  
  ALT_OS_INT_ENTER();
   4010c:	0001883a 	nop
#ifndef NIOS2_EIC_PRESENT
static ALT_INLINE alt_u32 ALT_ALWAYS_INLINE alt_irq_pending (void)
{
  alt_u32 active;

  NIOS2_READ_IPENDING (active);
   40110:	0005313a 	rdctl	r2,ipending
   40114:	e0bffe15 	stw	r2,-8(fp)

  return active;
   40118:	e0bffe17 	ldw	r2,-8(fp)
   * Consider the case where the high priority interupt is asserted during
   * the interrupt entry sequence for a lower priority interrupt to see why
   * this is the case.
   */

  active = alt_irq_pending ();
   4011c:	e0bffb15 	stw	r2,-20(fp)

  do
  {
    i = 0;
   40120:	e03ffd15 	stw	zero,-12(fp)
    mask = 1;
   40124:	00800044 	movi	r2,1
   40128:	e0bffc15 	stw	r2,-16(fp)
     * called to clear the interrupt condition.
     */

    do
    {
      if (active & mask)
   4012c:	e0fffb17 	ldw	r3,-20(fp)
   40130:	e0bffc17 	ldw	r2,-16(fp)
   40134:	1884703a 	and	r2,r3,r2
   40138:	10001526 	beq	r2,zero,40190 <alt_irq_handler+0x94>
      { 
#ifdef ALT_ENHANCED_INTERRUPT_API_PRESENT
        alt_irq[i].handler(alt_irq[i].context); 
#else
        alt_irq[i].handler(alt_irq[i].context, i); 
   4013c:	00800174 	movhi	r2,5
   40140:	10905f04 	addi	r2,r2,16764
   40144:	e0fffd17 	ldw	r3,-12(fp)
   40148:	180690fa 	slli	r3,r3,3
   4014c:	10c5883a 	add	r2,r2,r3
   40150:	10c00017 	ldw	r3,0(r2)
   40154:	00800174 	movhi	r2,5
   40158:	10905f04 	addi	r2,r2,16764
   4015c:	e13ffd17 	ldw	r4,-12(fp)
   40160:	200890fa 	slli	r4,r4,3
   40164:	1105883a 	add	r2,r2,r4
   40168:	10800104 	addi	r2,r2,4
   4016c:	10800017 	ldw	r2,0(r2)
   40170:	e17ffd17 	ldw	r5,-12(fp)
   40174:	1009883a 	mov	r4,r2
   40178:	183ee83a 	callr	r3
#endif
        break;
   4017c:	0001883a 	nop
#ifndef NIOS2_EIC_PRESENT
static ALT_INLINE alt_u32 ALT_ALWAYS_INLINE alt_irq_pending (void)
{
  alt_u32 active;

  NIOS2_READ_IPENDING (active);
   40180:	0005313a 	rdctl	r2,ipending
   40184:	e0bfff15 	stw	r2,-4(fp)

  return active;
   40188:	e0bfff17 	ldw	r2,-4(fp)
   4018c:	00000706 	br	401ac <alt_irq_handler+0xb0>
      }
      mask <<= 1;
   40190:	e0bffc17 	ldw	r2,-16(fp)
   40194:	1085883a 	add	r2,r2,r2
   40198:	e0bffc15 	stw	r2,-16(fp)
      i++;
   4019c:	e0bffd17 	ldw	r2,-12(fp)
   401a0:	10800044 	addi	r2,r2,1
   401a4:	e0bffd15 	stw	r2,-12(fp)

    } while (1);
   401a8:	003fe006 	br	4012c <__alt_data_end+0xfffd420c>

    active = alt_irq_pending ();
   401ac:	e0bffb15 	stw	r2,-20(fp)
    
  } while (active);
   401b0:	e0bffb17 	ldw	r2,-20(fp)
   401b4:	103fda1e 	bne	r2,zero,40120 <__alt_data_end+0xfffd4200>

  /*
   * Notify the operating system that interrupt processing is complete.
   */ 

  ALT_OS_INT_EXIT();
   401b8:	0001883a 	nop
}
   401bc:	0001883a 	nop
   401c0:	e037883a 	mov	sp,fp
   401c4:	dfc00117 	ldw	ra,4(sp)
   401c8:	df000017 	ldw	fp,0(sp)
   401cc:	dec00204 	addi	sp,sp,8
   401d0:	f800283a 	ret

000401d4 <alt_instruction_exception_entry>:
 * that handler if it has been registered. Absent a handler, it will
 * break break or hang as discussed below.
 */
int 
alt_instruction_exception_entry (alt_u32 exception_pc)
{
   401d4:	defffb04 	addi	sp,sp,-20
   401d8:	dfc00415 	stw	ra,16(sp)
   401dc:	df000315 	stw	fp,12(sp)
   401e0:	df000304 	addi	fp,sp,12
   401e4:	e13fff15 	stw	r4,-4(fp)
  cause = ( (cause & NIOS2_EXCEPTION_REG_CAUSE_MASK) >>
              NIOS2_EXCEPTION_REG_CAUSE_OFST );

  NIOS2_READ_BADADDR(badaddr);
#else
  cause = NIOS2_EXCEPTION_CAUSE_NOT_PRESENT;
   401e8:	00bfffc4 	movi	r2,-1
   401ec:	e0bffd15 	stw	r2,-12(fp)
  badaddr = 0;
   401f0:	e03ffe15 	stw	zero,-8(fp)
#endif /* NIOS2_HAS_EXTRA_EXCEPTION_INFO */

  if(alt_instruction_exception_handler) {
   401f4:	d0a6e317 	ldw	r2,-25716(gp)
   401f8:	10000726 	beq	r2,zero,40218 <alt_instruction_exception_entry+0x44>
     * Call handler. Its return value indicates whether the exception-causing
     * instruction should be re-issued. The code that called us,
     * alt_eceptions_entry.S, will look at this value and adjust the ea
     * register as necessary
     */
    return alt_instruction_exception_handler(cause, exception_pc, badaddr);
   401fc:	d0a6e317 	ldw	r2,-25716(gp)
   40200:	e0fffd17 	ldw	r3,-12(fp)
   40204:	e1bffe17 	ldw	r6,-8(fp)
   40208:	e17fff17 	ldw	r5,-4(fp)
   4020c:	1809883a 	mov	r4,r3
   40210:	103ee83a 	callr	r2
   40214:	00000206 	br	40220 <alt_instruction_exception_entry+0x4c>
   *    (a peripheral which negates its interrupt output before its
   *    interrupt handler has been executed will cause spurious interrupts)
   */
  else {
#ifdef NIOS2_HAS_DEBUG_STUB
    NIOS2_BREAK();
   40218:	003da03a 	break	0
      ;
#endif /* NIOS2_HAS_DEBUG_STUB */
  }

  /* We should not get here. Remove compiler warning. */
  return NIOS2_EXCEPTION_RETURN_REISSUE_INST;
   4021c:	0005883a 	mov	r2,zero
}
   40220:	e037883a 	mov	sp,fp
   40224:	dfc00117 	ldw	ra,4(sp)
   40228:	df000017 	ldw	fp,0(sp)
   4022c:	dec00204 	addi	sp,sp,8
   40230:	f800283a 	ret

Disassembly of section .text:

00040234 <_start>:

    /*
     * Now that the caches are initialized, set up the stack pointer and global pointer.
     * The values provided by the linker are assumed to be correctly aligned.
     */
    movhi sp, %hi(__alt_stack_pointer)
   40234:	06c001b4 	movhi	sp,6
    ori sp, sp, %lo(__alt_stack_pointer)
   40238:	deefc814 	ori	sp,sp,48928
    movhi gp, %hi(_gp)
   4023c:	06800174 	movhi	gp,5
    ori gp, gp, %lo(_gp)
   40240:	d6a97114 	ori	gp,gp,42436
 */
#ifndef ALT_SIM_OPTIMIZE
    /* Log that the BSS is about to be cleared. */
    ALT_LOG_PUTS(alt_log_msg_bss)

    movhi r2, %hi(__bss_start)
   40244:	00800174 	movhi	r2,5
    ori r2, r2, %lo(__bss_start)
   40248:	10904714 	ori	r2,r2,16668

    movhi r3, %hi(__bss_end)
   4024c:	00c00174 	movhi	r3,5
    ori r3, r3, %lo(__bss_end)
   40250:	18d09f14 	ori	r3,r3,17020

    beq r2, r3, 1f
   40254:	10c00326 	beq	r2,r3,40264 <_start+0x30>

0:
    stw zero, (r2)
   40258:	10000015 	stw	zero,0(r2)
    addi r2, r2, 4
   4025c:	10800104 	addi	r2,r2,4
    bltu r2, r3, 0b
   40260:	10fffd36 	bltu	r2,r3,40258 <__alt_data_end+0xfffd4338>
     * section aren't defined until alt_load() has been called).
     */
    mov   et, zero
#endif

    call alt_load
   40264:	004e0c40 	call	4e0c4 <alt_load>

    /* Log that alt_main is about to be called. */
    ALT_LOG_PUTS(alt_log_msg_alt_main)

    /* Call the C entry point. It should never return. */
    call alt_main
   40268:	004e2600 	call	4e260 <alt_main>

0004026c <alt_after_alt_main>:

    /* Wait in infinite loop in case alt_main does return. */
alt_after_alt_main:
    br alt_after_alt_main
   4026c:	003fff06 	br	4026c <__alt_data_end+0xfffd434c>

00040270 <send_coordinates>:
#include "sys/alt_irq.h"
#include <stdlib.h>
#include <sys/alt_stdio.h>

char send_coordinates(FILE* fp, alt_32 x, alt_32 y)
{
   40270:	defff904 	addi	sp,sp,-28
   40274:	dfc00615 	stw	ra,24(sp)
   40278:	df000515 	stw	fp,20(sp)
   4027c:	df000504 	addi	fp,sp,20
   40280:	e13ffd15 	stw	r4,-12(fp)
   40284:	e17ffe15 	stw	r5,-8(fp)
   40288:	e1bfff15 	stw	r6,-4(fp)
    alt_32 radius = 50;
   4028c:	00800c84 	movi	r2,50
   40290:	e0bffc15 	stw	r2,-16(fp)

    fprintf(fp, "X: %d, Y: %d end \n%c", x, y, 0x4);
   40294:	00800104 	movi	r2,4
   40298:	d8800015 	stw	r2,0(sp)
   4029c:	e1ffff17 	ldw	r7,-4(fp)
   402a0:	e1bffe17 	ldw	r6,-8(fp)
   402a4:	01400174 	movhi	r5,5
   402a8:	2941dc04 	addi	r5,r5,1904
   402ac:	e13ffd17 	ldw	r4,-12(fp)
   402b0:	0040ca80 	call	40ca8 <fprintf>
}
   402b4:	0001883a 	nop
   402b8:	e037883a 	mov	sp,fp
   402bc:	dfc00117 	ldw	ra,4(sp)
   402c0:	df000017 	ldw	fp,0(sp)
   402c4:	dec00204 	addi	sp,sp,8
   402c8:	f800283a 	ret

000402cc <main>:

int main()
{
   402cc:	defff904 	addi	sp,sp,-28
   402d0:	dfc00615 	stw	ra,24(sp)
   402d4:	df000515 	stw	fp,20(sp)
   402d8:	df000504 	addi	fp,sp,20
	printf("Running..\n");
   402dc:	01000174 	movhi	r4,5
   402e0:	2101e204 	addi	r4,r4,1928
   402e4:	004246c0 	call	4246c <puts>
	FILE* fp;
	char prompt = 0;
   402e8:	e03ffb05 	stb	zero,-20(fp)
	char output;

	alt_32 x = 0;
   402ec:	e03ffe15 	stw	zero,-8(fp)
	alt_32 y = 0;
   402f0:	e03fff15 	stw	zero,-4(fp)
	alt_16 radius = 50;
   402f4:	00800c84 	movi	r2,50
   402f8:	e0bffb8d 	sth	r2,-18(fp)

	alt_up_accelerometer_spi_dev * acc_dev;
	acc_dev = alt_up_accelerometer_spi_open_dev ("/dev/accelerometer_spi");
   402fc:	01000174 	movhi	r4,5
   40300:	2101e504 	addi	r4,r4,1940
   40304:	004f5800 	call	4f580 <alt_up_accelerometer_spi_open_dev>
   40308:	e0bffc15 	stw	r2,-16(fp)

	if ( acc_dev == NULL){
   4030c:	e0bffc17 	ldw	r2,-16(fp)
   40310:	1000041e 	bne	r2,zero,40324 <main+0x58>
	 	printf ("Error \n");
   40314:	01000174 	movhi	r4,5
   40318:	2101eb04 	addi	r4,r4,1964
   4031c:	004246c0 	call	4246c <puts>
   40320:	00000306 	br	40330 <main+0x64>
	}else{
	  	printf ("Connected to DE10 \n");
   40324:	01000174 	movhi	r4,5
   40328:	2101ed04 	addi	r4,r4,1972
   4032c:	004246c0 	call	4246c <puts>
	}

	fp = fopen ("/dev/jtag_uart", "r+");
   40330:	01400174 	movhi	r5,5
   40334:	2941f204 	addi	r5,r5,1992
   40338:	01000174 	movhi	r4,5
   4033c:	2101f304 	addi	r4,r4,1996
   40340:	0040c680 	call	40c68 <fopen>
   40344:	e0bffd15 	stw	r2,-12(fp)

	if (fp) {
   40348:	e0bffd17 	ldw	r2,-12(fp)
   4034c:	10002c26 	beq	r2,zero,40400 <main+0x134>
		while (prompt != 'v') {
   40350:	00002606 	br	403ec <main+0x120>
			do prompt = getc(fp); while (prompt == -1);
   40354:	e13ffd17 	ldw	r4,-12(fp)
   40358:	00417d40 	call	417d4 <getc>
   4035c:	e0bffb05 	stb	r2,-20(fp)
   40360:	e0bffb07 	ldb	r2,-20(fp)
   40364:	10bfffe0 	cmpeqi	r2,r2,-1
   40368:	103ffa1e 	bne	r2,zero,40354 <__alt_data_end+0xfffd4434>
			if (prompt != 'v' && prompt != '\xff') {
   4036c:	e0bffb07 	ldb	r2,-20(fp)
   40370:	10801da0 	cmpeqi	r2,r2,118
   40374:	1000111e 	bne	r2,zero,403bc <main+0xf0>
   40378:	e0bffb07 	ldb	r2,-20(fp)
   4037c:	10bfffe0 	cmpeqi	r2,r2,-1
   40380:	10000e1e 	bne	r2,zero,403bc <main+0xf0>
				alt_up_accelerometer_spi_read_x_axis(acc_dev, &x);
   40384:	e0bffe04 	addi	r2,fp,-8
   40388:	100b883a 	mov	r5,r2
   4038c:	e13ffc17 	ldw	r4,-16(fp)
   40390:	004f6cc0 	call	4f6cc <alt_up_accelerometer_spi_read_x_axis>
				alt_up_accelerometer_spi_read_y_axis(acc_dev, &y);
   40394:	e0bfff04 	addi	r2,fp,-4
   40398:	100b883a 	mov	r5,r2
   4039c:	e13ffc17 	ldw	r4,-16(fp)
   403a0:	004f7980 	call	4f798 <alt_up_accelerometer_spi_read_y_axis>

				send_coordinates(fp, x, y);
   403a4:	e0bffe17 	ldw	r2,-8(fp)
   403a8:	e0ffff17 	ldw	r3,-4(fp)
   403ac:	180d883a 	mov	r6,r3
   403b0:	100b883a 	mov	r5,r2
   403b4:	e13ffd17 	ldw	r4,-12(fp)
   403b8:	00402700 	call	40270 <send_coordinates>
			}
			if (ferror(fp)) {
   403bc:	e0bffd17 	ldw	r2,-12(fp)
   403c0:	1080030b 	ldhu	r2,12(r2)
   403c4:	10bfffcc 	andi	r2,r2,65535
   403c8:	1080100c 	andi	r2,r2,64
   403cc:	10000726 	beq	r2,zero,403ec <main+0x120>
				clearerr(fp);
   403d0:	e0bffd17 	ldw	r2,-12(fp)
   403d4:	10c0030b 	ldhu	r3,12(r2)
   403d8:	00bfe7c4 	movi	r2,-97
   403dc:	1884703a 	and	r2,r3,r2
   403e0:	1007883a 	mov	r3,r2
   403e4:	e0bffd17 	ldw	r2,-12(fp)
   403e8:	10c0030d 	sth	r3,12(r2)
	}

	fp = fopen ("/dev/jtag_uart", "r+");

	if (fp) {
		while (prompt != 'v') {
   403ec:	e0bffb07 	ldb	r2,-20(fp)
   403f0:	10801d98 	cmpnei	r2,r2,118
   403f4:	103fd71e 	bne	r2,zero,40354 <__alt_data_end+0xfffd4434>
			}
			if (ferror(fp)) {
				clearerr(fp);
			}
		}
		fclose(fp);
   403f8:	e13ffd17 	ldw	r4,-12(fp)
   403fc:	00405080 	call	40508 <fclose>
	}

	return 0;
   40400:	0005883a 	mov	r2,zero
}
   40404:	e037883a 	mov	sp,fp
   40408:	dfc00117 	ldw	ra,4(sp)
   4040c:	df000017 	ldw	fp,0(sp)
   40410:	dec00204 	addi	sp,sp,8
   40414:	f800283a 	ret

00040418 <_fclose_r>:
   40418:	28003926 	beq	r5,zero,40500 <_fclose_r+0xe8>
   4041c:	defffc04 	addi	sp,sp,-16
   40420:	dc400115 	stw	r17,4(sp)
   40424:	dc000015 	stw	r16,0(sp)
   40428:	dfc00315 	stw	ra,12(sp)
   4042c:	dc800215 	stw	r18,8(sp)
   40430:	2023883a 	mov	r17,r4
   40434:	2821883a 	mov	r16,r5
   40438:	20000226 	beq	r4,zero,40444 <_fclose_r+0x2c>
   4043c:	20800e17 	ldw	r2,56(r4)
   40440:	10002726 	beq	r2,zero,404e0 <_fclose_r+0xc8>
   40444:	8080030f 	ldh	r2,12(r16)
   40448:	1000071e 	bne	r2,zero,40468 <_fclose_r+0x50>
   4044c:	0005883a 	mov	r2,zero
   40450:	dfc00317 	ldw	ra,12(sp)
   40454:	dc800217 	ldw	r18,8(sp)
   40458:	dc400117 	ldw	r17,4(sp)
   4045c:	dc000017 	ldw	r16,0(sp)
   40460:	dec00404 	addi	sp,sp,16
   40464:	f800283a 	ret
   40468:	800b883a 	mov	r5,r16
   4046c:	8809883a 	mov	r4,r17
   40470:	004051c0 	call	4051c <__sflush_r>
   40474:	1025883a 	mov	r18,r2
   40478:	80800b17 	ldw	r2,44(r16)
   4047c:	10000426 	beq	r2,zero,40490 <_fclose_r+0x78>
   40480:	81400717 	ldw	r5,28(r16)
   40484:	8809883a 	mov	r4,r17
   40488:	103ee83a 	callr	r2
   4048c:	10001616 	blt	r2,zero,404e8 <_fclose_r+0xd0>
   40490:	8080030b 	ldhu	r2,12(r16)
   40494:	1080200c 	andi	r2,r2,128
   40498:	1000151e 	bne	r2,zero,404f0 <_fclose_r+0xd8>
   4049c:	81400c17 	ldw	r5,48(r16)
   404a0:	28000526 	beq	r5,zero,404b8 <_fclose_r+0xa0>
   404a4:	80801004 	addi	r2,r16,64
   404a8:	28800226 	beq	r5,r2,404b4 <_fclose_r+0x9c>
   404ac:	8809883a 	mov	r4,r17
   404b0:	0040df00 	call	40df0 <_free_r>
   404b4:	80000c15 	stw	zero,48(r16)
   404b8:	81401117 	ldw	r5,68(r16)
   404bc:	28000326 	beq	r5,zero,404cc <_fclose_r+0xb4>
   404c0:	8809883a 	mov	r4,r17
   404c4:	0040df00 	call	40df0 <_free_r>
   404c8:	80001115 	stw	zero,68(r16)
   404cc:	0040b340 	call	40b34 <__sfp_lock_acquire>
   404d0:	8000030d 	sth	zero,12(r16)
   404d4:	0040b380 	call	40b38 <__sfp_lock_release>
   404d8:	9005883a 	mov	r2,r18
   404dc:	003fdc06 	br	40450 <__alt_data_end+0xfffd4530>
   404e0:	0040b240 	call	40b24 <__sinit>
   404e4:	003fd706 	br	40444 <__alt_data_end+0xfffd4524>
   404e8:	04bfffc4 	movi	r18,-1
   404ec:	003fe806 	br	40490 <__alt_data_end+0xfffd4570>
   404f0:	81400417 	ldw	r5,16(r16)
   404f4:	8809883a 	mov	r4,r17
   404f8:	0040df00 	call	40df0 <_free_r>
   404fc:	003fe706 	br	4049c <__alt_data_end+0xfffd457c>
   40500:	0005883a 	mov	r2,zero
   40504:	f800283a 	ret

00040508 <fclose>:
   40508:	00800174 	movhi	r2,5
   4050c:	10897204 	addi	r2,r2,9672
   40510:	200b883a 	mov	r5,r4
   40514:	11000017 	ldw	r4,0(r2)
   40518:	00404181 	jmpi	40418 <_fclose_r>

0004051c <__sflush_r>:
   4051c:	2880030b 	ldhu	r2,12(r5)
   40520:	defffb04 	addi	sp,sp,-20
   40524:	dcc00315 	stw	r19,12(sp)
   40528:	dc400115 	stw	r17,4(sp)
   4052c:	dfc00415 	stw	ra,16(sp)
   40530:	dc800215 	stw	r18,8(sp)
   40534:	dc000015 	stw	r16,0(sp)
   40538:	10c0020c 	andi	r3,r2,8
   4053c:	2823883a 	mov	r17,r5
   40540:	2027883a 	mov	r19,r4
   40544:	1800311e 	bne	r3,zero,4060c <__sflush_r+0xf0>
   40548:	28c00117 	ldw	r3,4(r5)
   4054c:	10820014 	ori	r2,r2,2048
   40550:	2880030d 	sth	r2,12(r5)
   40554:	00c04b0e 	bge	zero,r3,40684 <__sflush_r+0x168>
   40558:	8a000a17 	ldw	r8,40(r17)
   4055c:	40002326 	beq	r8,zero,405ec <__sflush_r+0xd0>
   40560:	9c000017 	ldw	r16,0(r19)
   40564:	10c4000c 	andi	r3,r2,4096
   40568:	98000015 	stw	zero,0(r19)
   4056c:	18004826 	beq	r3,zero,40690 <__sflush_r+0x174>
   40570:	89801417 	ldw	r6,80(r17)
   40574:	10c0010c 	andi	r3,r2,4
   40578:	18000626 	beq	r3,zero,40594 <__sflush_r+0x78>
   4057c:	88c00117 	ldw	r3,4(r17)
   40580:	88800c17 	ldw	r2,48(r17)
   40584:	30cdc83a 	sub	r6,r6,r3
   40588:	10000226 	beq	r2,zero,40594 <__sflush_r+0x78>
   4058c:	88800f17 	ldw	r2,60(r17)
   40590:	308dc83a 	sub	r6,r6,r2
   40594:	89400717 	ldw	r5,28(r17)
   40598:	000f883a 	mov	r7,zero
   4059c:	9809883a 	mov	r4,r19
   405a0:	403ee83a 	callr	r8
   405a4:	00ffffc4 	movi	r3,-1
   405a8:	10c04426 	beq	r2,r3,406bc <__sflush_r+0x1a0>
   405ac:	88c0030b 	ldhu	r3,12(r17)
   405b0:	89000417 	ldw	r4,16(r17)
   405b4:	88000115 	stw	zero,4(r17)
   405b8:	197dffcc 	andi	r5,r3,63487
   405bc:	8940030d 	sth	r5,12(r17)
   405c0:	89000015 	stw	r4,0(r17)
   405c4:	18c4000c 	andi	r3,r3,4096
   405c8:	18002c1e 	bne	r3,zero,4067c <__sflush_r+0x160>
   405cc:	89400c17 	ldw	r5,48(r17)
   405d0:	9c000015 	stw	r16,0(r19)
   405d4:	28000526 	beq	r5,zero,405ec <__sflush_r+0xd0>
   405d8:	88801004 	addi	r2,r17,64
   405dc:	28800226 	beq	r5,r2,405e8 <__sflush_r+0xcc>
   405e0:	9809883a 	mov	r4,r19
   405e4:	0040df00 	call	40df0 <_free_r>
   405e8:	88000c15 	stw	zero,48(r17)
   405ec:	0005883a 	mov	r2,zero
   405f0:	dfc00417 	ldw	ra,16(sp)
   405f4:	dcc00317 	ldw	r19,12(sp)
   405f8:	dc800217 	ldw	r18,8(sp)
   405fc:	dc400117 	ldw	r17,4(sp)
   40600:	dc000017 	ldw	r16,0(sp)
   40604:	dec00504 	addi	sp,sp,20
   40608:	f800283a 	ret
   4060c:	2c800417 	ldw	r18,16(r5)
   40610:	903ff626 	beq	r18,zero,405ec <__alt_data_end+0xfffd46cc>
   40614:	2c000017 	ldw	r16,0(r5)
   40618:	108000cc 	andi	r2,r2,3
   4061c:	2c800015 	stw	r18,0(r5)
   40620:	84a1c83a 	sub	r16,r16,r18
   40624:	1000131e 	bne	r2,zero,40674 <__sflush_r+0x158>
   40628:	28800517 	ldw	r2,20(r5)
   4062c:	88800215 	stw	r2,8(r17)
   40630:	04000316 	blt	zero,r16,40640 <__sflush_r+0x124>
   40634:	003fed06 	br	405ec <__alt_data_end+0xfffd46cc>
   40638:	90a5883a 	add	r18,r18,r2
   4063c:	043feb0e 	bge	zero,r16,405ec <__alt_data_end+0xfffd46cc>
   40640:	88800917 	ldw	r2,36(r17)
   40644:	89400717 	ldw	r5,28(r17)
   40648:	800f883a 	mov	r7,r16
   4064c:	900d883a 	mov	r6,r18
   40650:	9809883a 	mov	r4,r19
   40654:	103ee83a 	callr	r2
   40658:	80a1c83a 	sub	r16,r16,r2
   4065c:	00bff616 	blt	zero,r2,40638 <__alt_data_end+0xfffd4718>
   40660:	88c0030b 	ldhu	r3,12(r17)
   40664:	00bfffc4 	movi	r2,-1
   40668:	18c01014 	ori	r3,r3,64
   4066c:	88c0030d 	sth	r3,12(r17)
   40670:	003fdf06 	br	405f0 <__alt_data_end+0xfffd46d0>
   40674:	0005883a 	mov	r2,zero
   40678:	003fec06 	br	4062c <__alt_data_end+0xfffd470c>
   4067c:	88801415 	stw	r2,80(r17)
   40680:	003fd206 	br	405cc <__alt_data_end+0xfffd46ac>
   40684:	28c00f17 	ldw	r3,60(r5)
   40688:	00ffb316 	blt	zero,r3,40558 <__alt_data_end+0xfffd4638>
   4068c:	003fd706 	br	405ec <__alt_data_end+0xfffd46cc>
   40690:	89400717 	ldw	r5,28(r17)
   40694:	000d883a 	mov	r6,zero
   40698:	01c00044 	movi	r7,1
   4069c:	9809883a 	mov	r4,r19
   406a0:	403ee83a 	callr	r8
   406a4:	100d883a 	mov	r6,r2
   406a8:	00bfffc4 	movi	r2,-1
   406ac:	30801426 	beq	r6,r2,40700 <__sflush_r+0x1e4>
   406b0:	8880030b 	ldhu	r2,12(r17)
   406b4:	8a000a17 	ldw	r8,40(r17)
   406b8:	003fae06 	br	40574 <__alt_data_end+0xfffd4654>
   406bc:	98c00017 	ldw	r3,0(r19)
   406c0:	183fba26 	beq	r3,zero,405ac <__alt_data_end+0xfffd468c>
   406c4:	01000744 	movi	r4,29
   406c8:	19000626 	beq	r3,r4,406e4 <__sflush_r+0x1c8>
   406cc:	01000584 	movi	r4,22
   406d0:	19000426 	beq	r3,r4,406e4 <__sflush_r+0x1c8>
   406d4:	88c0030b 	ldhu	r3,12(r17)
   406d8:	18c01014 	ori	r3,r3,64
   406dc:	88c0030d 	sth	r3,12(r17)
   406e0:	003fc306 	br	405f0 <__alt_data_end+0xfffd46d0>
   406e4:	8880030b 	ldhu	r2,12(r17)
   406e8:	88c00417 	ldw	r3,16(r17)
   406ec:	88000115 	stw	zero,4(r17)
   406f0:	10bdffcc 	andi	r2,r2,63487
   406f4:	8880030d 	sth	r2,12(r17)
   406f8:	88c00015 	stw	r3,0(r17)
   406fc:	003fb306 	br	405cc <__alt_data_end+0xfffd46ac>
   40700:	98800017 	ldw	r2,0(r19)
   40704:	103fea26 	beq	r2,zero,406b0 <__alt_data_end+0xfffd4790>
   40708:	00c00744 	movi	r3,29
   4070c:	10c00226 	beq	r2,r3,40718 <__sflush_r+0x1fc>
   40710:	00c00584 	movi	r3,22
   40714:	10c0031e 	bne	r2,r3,40724 <__sflush_r+0x208>
   40718:	9c000015 	stw	r16,0(r19)
   4071c:	0005883a 	mov	r2,zero
   40720:	003fb306 	br	405f0 <__alt_data_end+0xfffd46d0>
   40724:	88c0030b 	ldhu	r3,12(r17)
   40728:	3005883a 	mov	r2,r6
   4072c:	18c01014 	ori	r3,r3,64
   40730:	88c0030d 	sth	r3,12(r17)
   40734:	003fae06 	br	405f0 <__alt_data_end+0xfffd46d0>

00040738 <_fflush_r>:
   40738:	defffd04 	addi	sp,sp,-12
   4073c:	dc000115 	stw	r16,4(sp)
   40740:	dfc00215 	stw	ra,8(sp)
   40744:	2021883a 	mov	r16,r4
   40748:	20000226 	beq	r4,zero,40754 <_fflush_r+0x1c>
   4074c:	20800e17 	ldw	r2,56(r4)
   40750:	10000c26 	beq	r2,zero,40784 <_fflush_r+0x4c>
   40754:	2880030f 	ldh	r2,12(r5)
   40758:	1000051e 	bne	r2,zero,40770 <_fflush_r+0x38>
   4075c:	0005883a 	mov	r2,zero
   40760:	dfc00217 	ldw	ra,8(sp)
   40764:	dc000117 	ldw	r16,4(sp)
   40768:	dec00304 	addi	sp,sp,12
   4076c:	f800283a 	ret
   40770:	8009883a 	mov	r4,r16
   40774:	dfc00217 	ldw	ra,8(sp)
   40778:	dc000117 	ldw	r16,4(sp)
   4077c:	dec00304 	addi	sp,sp,12
   40780:	004051c1 	jmpi	4051c <__sflush_r>
   40784:	d9400015 	stw	r5,0(sp)
   40788:	0040b240 	call	40b24 <__sinit>
   4078c:	d9400017 	ldw	r5,0(sp)
   40790:	003ff006 	br	40754 <__alt_data_end+0xfffd4834>

00040794 <fflush>:
   40794:	20000526 	beq	r4,zero,407ac <fflush+0x18>
   40798:	00800174 	movhi	r2,5
   4079c:	10897204 	addi	r2,r2,9672
   407a0:	200b883a 	mov	r5,r4
   407a4:	11000017 	ldw	r4,0(r2)
   407a8:	00407381 	jmpi	40738 <_fflush_r>
   407ac:	00800174 	movhi	r2,5
   407b0:	10897104 	addi	r2,r2,9668
   407b4:	11000017 	ldw	r4,0(r2)
   407b8:	01400134 	movhi	r5,4
   407bc:	2941ce04 	addi	r5,r5,1848
   407c0:	00416a01 	jmpi	416a0 <_fwalk_reent>

000407c4 <__fp_unlock>:
   407c4:	0005883a 	mov	r2,zero
   407c8:	f800283a 	ret

000407cc <_cleanup_r>:
   407cc:	01400134 	movhi	r5,4
   407d0:	29410604 	addi	r5,r5,1048
   407d4:	00416a01 	jmpi	416a0 <_fwalk_reent>

000407d8 <__sinit.part.1>:
   407d8:	defff704 	addi	sp,sp,-36
   407dc:	00c00134 	movhi	r3,4
   407e0:	dfc00815 	stw	ra,32(sp)
   407e4:	ddc00715 	stw	r23,28(sp)
   407e8:	dd800615 	stw	r22,24(sp)
   407ec:	dd400515 	stw	r21,20(sp)
   407f0:	dd000415 	stw	r20,16(sp)
   407f4:	dcc00315 	stw	r19,12(sp)
   407f8:	dc800215 	stw	r18,8(sp)
   407fc:	dc400115 	stw	r17,4(sp)
   40800:	dc000015 	stw	r16,0(sp)
   40804:	18c1f304 	addi	r3,r3,1996
   40808:	24000117 	ldw	r16,4(r4)
   4080c:	20c00f15 	stw	r3,60(r4)
   40810:	2080bb04 	addi	r2,r4,748
   40814:	00c000c4 	movi	r3,3
   40818:	20c0b915 	stw	r3,740(r4)
   4081c:	2080ba15 	stw	r2,744(r4)
   40820:	2000b815 	stw	zero,736(r4)
   40824:	05c00204 	movi	r23,8
   40828:	00800104 	movi	r2,4
   4082c:	2025883a 	mov	r18,r4
   40830:	b80d883a 	mov	r6,r23
   40834:	81001704 	addi	r4,r16,92
   40838:	000b883a 	mov	r5,zero
   4083c:	80000015 	stw	zero,0(r16)
   40840:	80000115 	stw	zero,4(r16)
   40844:	80000215 	stw	zero,8(r16)
   40848:	8080030d 	sth	r2,12(r16)
   4084c:	80001915 	stw	zero,100(r16)
   40850:	8000038d 	sth	zero,14(r16)
   40854:	80000415 	stw	zero,16(r16)
   40858:	80000515 	stw	zero,20(r16)
   4085c:	80000615 	stw	zero,24(r16)
   40860:	00422240 	call	42224 <memset>
   40864:	05800134 	movhi	r22,4
   40868:	94400217 	ldw	r17,8(r18)
   4086c:	05400134 	movhi	r21,4
   40870:	05000134 	movhi	r20,4
   40874:	04c00134 	movhi	r19,4
   40878:	b589d304 	addi	r22,r22,10060
   4087c:	ad49ea04 	addi	r21,r21,10152
   40880:	a50a0904 	addi	r20,r20,10276
   40884:	9cca2004 	addi	r19,r19,10368
   40888:	85800815 	stw	r22,32(r16)
   4088c:	85400915 	stw	r21,36(r16)
   40890:	85000a15 	stw	r20,40(r16)
   40894:	84c00b15 	stw	r19,44(r16)
   40898:	84000715 	stw	r16,28(r16)
   4089c:	00800284 	movi	r2,10
   408a0:	8880030d 	sth	r2,12(r17)
   408a4:	00800044 	movi	r2,1
   408a8:	b80d883a 	mov	r6,r23
   408ac:	89001704 	addi	r4,r17,92
   408b0:	000b883a 	mov	r5,zero
   408b4:	88000015 	stw	zero,0(r17)
   408b8:	88000115 	stw	zero,4(r17)
   408bc:	88000215 	stw	zero,8(r17)
   408c0:	88001915 	stw	zero,100(r17)
   408c4:	8880038d 	sth	r2,14(r17)
   408c8:	88000415 	stw	zero,16(r17)
   408cc:	88000515 	stw	zero,20(r17)
   408d0:	88000615 	stw	zero,24(r17)
   408d4:	00422240 	call	42224 <memset>
   408d8:	94000317 	ldw	r16,12(r18)
   408dc:	00800484 	movi	r2,18
   408e0:	8c400715 	stw	r17,28(r17)
   408e4:	8d800815 	stw	r22,32(r17)
   408e8:	8d400915 	stw	r21,36(r17)
   408ec:	8d000a15 	stw	r20,40(r17)
   408f0:	8cc00b15 	stw	r19,44(r17)
   408f4:	8080030d 	sth	r2,12(r16)
   408f8:	00800084 	movi	r2,2
   408fc:	80000015 	stw	zero,0(r16)
   40900:	80000115 	stw	zero,4(r16)
   40904:	80000215 	stw	zero,8(r16)
   40908:	80001915 	stw	zero,100(r16)
   4090c:	8080038d 	sth	r2,14(r16)
   40910:	80000415 	stw	zero,16(r16)
   40914:	80000515 	stw	zero,20(r16)
   40918:	80000615 	stw	zero,24(r16)
   4091c:	b80d883a 	mov	r6,r23
   40920:	000b883a 	mov	r5,zero
   40924:	81001704 	addi	r4,r16,92
   40928:	00422240 	call	42224 <memset>
   4092c:	00800044 	movi	r2,1
   40930:	84000715 	stw	r16,28(r16)
   40934:	85800815 	stw	r22,32(r16)
   40938:	85400915 	stw	r21,36(r16)
   4093c:	85000a15 	stw	r20,40(r16)
   40940:	84c00b15 	stw	r19,44(r16)
   40944:	90800e15 	stw	r2,56(r18)
   40948:	dfc00817 	ldw	ra,32(sp)
   4094c:	ddc00717 	ldw	r23,28(sp)
   40950:	dd800617 	ldw	r22,24(sp)
   40954:	dd400517 	ldw	r21,20(sp)
   40958:	dd000417 	ldw	r20,16(sp)
   4095c:	dcc00317 	ldw	r19,12(sp)
   40960:	dc800217 	ldw	r18,8(sp)
   40964:	dc400117 	ldw	r17,4(sp)
   40968:	dc000017 	ldw	r16,0(sp)
   4096c:	dec00904 	addi	sp,sp,36
   40970:	f800283a 	ret

00040974 <__fp_lock>:
   40974:	0005883a 	mov	r2,zero
   40978:	f800283a 	ret

0004097c <__sfmoreglue>:
   4097c:	defffc04 	addi	sp,sp,-16
   40980:	dc800215 	stw	r18,8(sp)
   40984:	2825883a 	mov	r18,r5
   40988:	dc000015 	stw	r16,0(sp)
   4098c:	01401a04 	movi	r5,104
   40990:	2021883a 	mov	r16,r4
   40994:	913fffc4 	addi	r4,r18,-1
   40998:	dfc00315 	stw	ra,12(sp)
   4099c:	dc400115 	stw	r17,4(sp)
   409a0:	004b4740 	call	4b474 <__mulsi3>
   409a4:	8009883a 	mov	r4,r16
   409a8:	11401d04 	addi	r5,r2,116
   409ac:	1023883a 	mov	r17,r2
   409b0:	0041a180 	call	41a18 <_malloc_r>
   409b4:	1021883a 	mov	r16,r2
   409b8:	10000726 	beq	r2,zero,409d8 <__sfmoreglue+0x5c>
   409bc:	11000304 	addi	r4,r2,12
   409c0:	10000015 	stw	zero,0(r2)
   409c4:	14800115 	stw	r18,4(r2)
   409c8:	11000215 	stw	r4,8(r2)
   409cc:	89801a04 	addi	r6,r17,104
   409d0:	000b883a 	mov	r5,zero
   409d4:	00422240 	call	42224 <memset>
   409d8:	8005883a 	mov	r2,r16
   409dc:	dfc00317 	ldw	ra,12(sp)
   409e0:	dc800217 	ldw	r18,8(sp)
   409e4:	dc400117 	ldw	r17,4(sp)
   409e8:	dc000017 	ldw	r16,0(sp)
   409ec:	dec00404 	addi	sp,sp,16
   409f0:	f800283a 	ret

000409f4 <__sfp>:
   409f4:	defffb04 	addi	sp,sp,-20
   409f8:	dc000015 	stw	r16,0(sp)
   409fc:	04000174 	movhi	r16,5
   40a00:	84097104 	addi	r16,r16,9668
   40a04:	dcc00315 	stw	r19,12(sp)
   40a08:	2027883a 	mov	r19,r4
   40a0c:	81000017 	ldw	r4,0(r16)
   40a10:	dfc00415 	stw	ra,16(sp)
   40a14:	dc800215 	stw	r18,8(sp)
   40a18:	20800e17 	ldw	r2,56(r4)
   40a1c:	dc400115 	stw	r17,4(sp)
   40a20:	1000021e 	bne	r2,zero,40a2c <__sfp+0x38>
   40a24:	00407d80 	call	407d8 <__sinit.part.1>
   40a28:	81000017 	ldw	r4,0(r16)
   40a2c:	2480b804 	addi	r18,r4,736
   40a30:	047fffc4 	movi	r17,-1
   40a34:	91000117 	ldw	r4,4(r18)
   40a38:	94000217 	ldw	r16,8(r18)
   40a3c:	213fffc4 	addi	r4,r4,-1
   40a40:	20000a16 	blt	r4,zero,40a6c <__sfp+0x78>
   40a44:	8080030f 	ldh	r2,12(r16)
   40a48:	10000c26 	beq	r2,zero,40a7c <__sfp+0x88>
   40a4c:	80c01d04 	addi	r3,r16,116
   40a50:	00000206 	br	40a5c <__sfp+0x68>
   40a54:	18bfe60f 	ldh	r2,-104(r3)
   40a58:	10000826 	beq	r2,zero,40a7c <__sfp+0x88>
   40a5c:	213fffc4 	addi	r4,r4,-1
   40a60:	1c3ffd04 	addi	r16,r3,-12
   40a64:	18c01a04 	addi	r3,r3,104
   40a68:	247ffa1e 	bne	r4,r17,40a54 <__alt_data_end+0xfffd4b34>
   40a6c:	90800017 	ldw	r2,0(r18)
   40a70:	10001d26 	beq	r2,zero,40ae8 <__sfp+0xf4>
   40a74:	1025883a 	mov	r18,r2
   40a78:	003fee06 	br	40a34 <__alt_data_end+0xfffd4b14>
   40a7c:	00bfffc4 	movi	r2,-1
   40a80:	8080038d 	sth	r2,14(r16)
   40a84:	00800044 	movi	r2,1
   40a88:	8080030d 	sth	r2,12(r16)
   40a8c:	80001915 	stw	zero,100(r16)
   40a90:	80000015 	stw	zero,0(r16)
   40a94:	80000215 	stw	zero,8(r16)
   40a98:	80000115 	stw	zero,4(r16)
   40a9c:	80000415 	stw	zero,16(r16)
   40aa0:	80000515 	stw	zero,20(r16)
   40aa4:	80000615 	stw	zero,24(r16)
   40aa8:	01800204 	movi	r6,8
   40aac:	000b883a 	mov	r5,zero
   40ab0:	81001704 	addi	r4,r16,92
   40ab4:	00422240 	call	42224 <memset>
   40ab8:	8005883a 	mov	r2,r16
   40abc:	80000c15 	stw	zero,48(r16)
   40ac0:	80000d15 	stw	zero,52(r16)
   40ac4:	80001115 	stw	zero,68(r16)
   40ac8:	80001215 	stw	zero,72(r16)
   40acc:	dfc00417 	ldw	ra,16(sp)
   40ad0:	dcc00317 	ldw	r19,12(sp)
   40ad4:	dc800217 	ldw	r18,8(sp)
   40ad8:	dc400117 	ldw	r17,4(sp)
   40adc:	dc000017 	ldw	r16,0(sp)
   40ae0:	dec00504 	addi	sp,sp,20
   40ae4:	f800283a 	ret
   40ae8:	01400104 	movi	r5,4
   40aec:	9809883a 	mov	r4,r19
   40af0:	004097c0 	call	4097c <__sfmoreglue>
   40af4:	90800015 	stw	r2,0(r18)
   40af8:	103fde1e 	bne	r2,zero,40a74 <__alt_data_end+0xfffd4b54>
   40afc:	00800304 	movi	r2,12
   40b00:	98800015 	stw	r2,0(r19)
   40b04:	0005883a 	mov	r2,zero
   40b08:	003ff006 	br	40acc <__alt_data_end+0xfffd4bac>

00040b0c <_cleanup>:
   40b0c:	00800174 	movhi	r2,5
   40b10:	10897104 	addi	r2,r2,9668
   40b14:	11000017 	ldw	r4,0(r2)
   40b18:	01400134 	movhi	r5,4
   40b1c:	29410604 	addi	r5,r5,1048
   40b20:	00416a01 	jmpi	416a0 <_fwalk_reent>

00040b24 <__sinit>:
   40b24:	20800e17 	ldw	r2,56(r4)
   40b28:	10000126 	beq	r2,zero,40b30 <__sinit+0xc>
   40b2c:	f800283a 	ret
   40b30:	00407d81 	jmpi	407d8 <__sinit.part.1>

00040b34 <__sfp_lock_acquire>:
   40b34:	f800283a 	ret

00040b38 <__sfp_lock_release>:
   40b38:	f800283a 	ret

00040b3c <__sinit_lock_acquire>:
   40b3c:	f800283a 	ret

00040b40 <__sinit_lock_release>:
   40b40:	f800283a 	ret

00040b44 <__fp_lock_all>:
   40b44:	00800174 	movhi	r2,5
   40b48:	10897204 	addi	r2,r2,9672
   40b4c:	11000017 	ldw	r4,0(r2)
   40b50:	01400134 	movhi	r5,4
   40b54:	29425d04 	addi	r5,r5,2420
   40b58:	00415dc1 	jmpi	415dc <_fwalk>

00040b5c <__fp_unlock_all>:
   40b5c:	00800174 	movhi	r2,5
   40b60:	10897204 	addi	r2,r2,9672
   40b64:	11000017 	ldw	r4,0(r2)
   40b68:	01400134 	movhi	r5,4
   40b6c:	2941f104 	addi	r5,r5,1988
   40b70:	00415dc1 	jmpi	415dc <_fwalk>

00040b74 <_fopen_r>:
   40b74:	defffa04 	addi	sp,sp,-24
   40b78:	3005883a 	mov	r2,r6
   40b7c:	dcc00415 	stw	r19,16(sp)
   40b80:	d80d883a 	mov	r6,sp
   40b84:	2827883a 	mov	r19,r5
   40b88:	100b883a 	mov	r5,r2
   40b8c:	dc800315 	stw	r18,12(sp)
   40b90:	dfc00515 	stw	ra,20(sp)
   40b94:	dc400215 	stw	r17,8(sp)
   40b98:	dc000115 	stw	r16,4(sp)
   40b9c:	2025883a 	mov	r18,r4
   40ba0:	004678c0 	call	4678c <__sflags>
   40ba4:	10002726 	beq	r2,zero,40c44 <_fopen_r+0xd0>
   40ba8:	9009883a 	mov	r4,r18
   40bac:	1023883a 	mov	r17,r2
   40bb0:	00409f40 	call	409f4 <__sfp>
   40bb4:	1021883a 	mov	r16,r2
   40bb8:	10002226 	beq	r2,zero,40c44 <_fopen_r+0xd0>
   40bbc:	d9800017 	ldw	r6,0(sp)
   40bc0:	01c06d84 	movi	r7,438
   40bc4:	980b883a 	mov	r5,r19
   40bc8:	9009883a 	mov	r4,r18
   40bcc:	004234c0 	call	4234c <_open_r>
   40bd0:	10001916 	blt	r2,zero,40c38 <_fopen_r+0xc4>
   40bd4:	8080038d 	sth	r2,14(r16)
   40bd8:	00800134 	movhi	r2,4
   40bdc:	1089d304 	addi	r2,r2,10060
   40be0:	80800815 	stw	r2,32(r16)
   40be4:	00800134 	movhi	r2,4
   40be8:	1089ea04 	addi	r2,r2,10152
   40bec:	80800915 	stw	r2,36(r16)
   40bf0:	00800134 	movhi	r2,4
   40bf4:	108a0904 	addi	r2,r2,10276
   40bf8:	80800a15 	stw	r2,40(r16)
   40bfc:	00800134 	movhi	r2,4
   40c00:	108a2004 	addi	r2,r2,10368
   40c04:	8440030d 	sth	r17,12(r16)
   40c08:	84000715 	stw	r16,28(r16)
   40c0c:	80800b15 	stw	r2,44(r16)
   40c10:	8c40400c 	andi	r17,r17,256
   40c14:	88000d1e 	bne	r17,zero,40c4c <_fopen_r+0xd8>
   40c18:	8005883a 	mov	r2,r16
   40c1c:	dfc00517 	ldw	ra,20(sp)
   40c20:	dcc00417 	ldw	r19,16(sp)
   40c24:	dc800317 	ldw	r18,12(sp)
   40c28:	dc400217 	ldw	r17,8(sp)
   40c2c:	dc000117 	ldw	r16,4(sp)
   40c30:	dec00604 	addi	sp,sp,24
   40c34:	f800283a 	ret
   40c38:	0040b340 	call	40b34 <__sfp_lock_acquire>
   40c3c:	8000030d 	sth	zero,12(r16)
   40c40:	0040b380 	call	40b38 <__sfp_lock_release>
   40c44:	0005883a 	mov	r2,zero
   40c48:	003ff406 	br	40c1c <__alt_data_end+0xfffd4cfc>
   40c4c:	01c00084 	movi	r7,2
   40c50:	000d883a 	mov	r6,zero
   40c54:	800b883a 	mov	r5,r16
   40c58:	9009883a 	mov	r4,r18
   40c5c:	00411000 	call	41100 <_fseek_r>
   40c60:	8005883a 	mov	r2,r16
   40c64:	003fed06 	br	40c1c <__alt_data_end+0xfffd4cfc>

00040c68 <fopen>:
   40c68:	00800174 	movhi	r2,5
   40c6c:	10897204 	addi	r2,r2,9672
   40c70:	280d883a 	mov	r6,r5
   40c74:	200b883a 	mov	r5,r4
   40c78:	11000017 	ldw	r4,0(r2)
   40c7c:	0040b741 	jmpi	40b74 <_fopen_r>

00040c80 <_fprintf_r>:
   40c80:	defffe04 	addi	sp,sp,-8
   40c84:	2809883a 	mov	r4,r5
   40c88:	300b883a 	mov	r5,r6
   40c8c:	dfc00015 	stw	ra,0(sp)
   40c90:	d9c00115 	stw	r7,4(sp)
   40c94:	d9800104 	addi	r6,sp,4
   40c98:	0044bfc0 	call	44bfc <__vfprintf_internal>
   40c9c:	dfc00017 	ldw	ra,0(sp)
   40ca0:	dec00204 	addi	sp,sp,8
   40ca4:	f800283a 	ret

00040ca8 <fprintf>:
   40ca8:	defffd04 	addi	sp,sp,-12
   40cac:	dfc00015 	stw	ra,0(sp)
   40cb0:	d9800115 	stw	r6,4(sp)
   40cb4:	d9c00215 	stw	r7,8(sp)
   40cb8:	d9800104 	addi	r6,sp,4
   40cbc:	0044bfc0 	call	44bfc <__vfprintf_internal>
   40cc0:	dfc00017 	ldw	ra,0(sp)
   40cc4:	dec00304 	addi	sp,sp,12
   40cc8:	f800283a 	ret

00040ccc <_malloc_trim_r>:
   40ccc:	defffb04 	addi	sp,sp,-20
   40cd0:	dcc00315 	stw	r19,12(sp)
   40cd4:	04c00174 	movhi	r19,5
   40cd8:	dc800215 	stw	r18,8(sp)
   40cdc:	dc400115 	stw	r17,4(sp)
   40ce0:	dc000015 	stw	r16,0(sp)
   40ce4:	dfc00415 	stw	ra,16(sp)
   40ce8:	2821883a 	mov	r16,r5
   40cec:	9cc3c404 	addi	r19,r19,3856
   40cf0:	2025883a 	mov	r18,r4
   40cf4:	004e2dc0 	call	4e2dc <__malloc_lock>
   40cf8:	98800217 	ldw	r2,8(r19)
   40cfc:	14400117 	ldw	r17,4(r2)
   40d00:	00bfff04 	movi	r2,-4
   40d04:	88a2703a 	and	r17,r17,r2
   40d08:	8c21c83a 	sub	r16,r17,r16
   40d0c:	8403fbc4 	addi	r16,r16,4079
   40d10:	8020d33a 	srli	r16,r16,12
   40d14:	0083ffc4 	movi	r2,4095
   40d18:	843fffc4 	addi	r16,r16,-1
   40d1c:	8020933a 	slli	r16,r16,12
   40d20:	1400060e 	bge	r2,r16,40d3c <_malloc_trim_r+0x70>
   40d24:	000b883a 	mov	r5,zero
   40d28:	9009883a 	mov	r4,r18
   40d2c:	00426f80 	call	426f8 <_sbrk_r>
   40d30:	98c00217 	ldw	r3,8(r19)
   40d34:	1c47883a 	add	r3,r3,r17
   40d38:	10c00a26 	beq	r2,r3,40d64 <_malloc_trim_r+0x98>
   40d3c:	9009883a 	mov	r4,r18
   40d40:	004e3000 	call	4e300 <__malloc_unlock>
   40d44:	0005883a 	mov	r2,zero
   40d48:	dfc00417 	ldw	ra,16(sp)
   40d4c:	dcc00317 	ldw	r19,12(sp)
   40d50:	dc800217 	ldw	r18,8(sp)
   40d54:	dc400117 	ldw	r17,4(sp)
   40d58:	dc000017 	ldw	r16,0(sp)
   40d5c:	dec00504 	addi	sp,sp,20
   40d60:	f800283a 	ret
   40d64:	040bc83a 	sub	r5,zero,r16
   40d68:	9009883a 	mov	r4,r18
   40d6c:	00426f80 	call	426f8 <_sbrk_r>
   40d70:	00ffffc4 	movi	r3,-1
   40d74:	10c00d26 	beq	r2,r3,40dac <_malloc_trim_r+0xe0>
   40d78:	00c00174 	movhi	r3,5
   40d7c:	18d05504 	addi	r3,r3,16724
   40d80:	18800017 	ldw	r2,0(r3)
   40d84:	99000217 	ldw	r4,8(r19)
   40d88:	8c23c83a 	sub	r17,r17,r16
   40d8c:	8c400054 	ori	r17,r17,1
   40d90:	1421c83a 	sub	r16,r2,r16
   40d94:	24400115 	stw	r17,4(r4)
   40d98:	9009883a 	mov	r4,r18
   40d9c:	1c000015 	stw	r16,0(r3)
   40da0:	004e3000 	call	4e300 <__malloc_unlock>
   40da4:	00800044 	movi	r2,1
   40da8:	003fe706 	br	40d48 <__alt_data_end+0xfffd4e28>
   40dac:	000b883a 	mov	r5,zero
   40db0:	9009883a 	mov	r4,r18
   40db4:	00426f80 	call	426f8 <_sbrk_r>
   40db8:	99000217 	ldw	r4,8(r19)
   40dbc:	014003c4 	movi	r5,15
   40dc0:	1107c83a 	sub	r3,r2,r4
   40dc4:	28ffdd0e 	bge	r5,r3,40d3c <__alt_data_end+0xfffd4e1c>
   40dc8:	01400174 	movhi	r5,5
   40dcc:	29497304 	addi	r5,r5,9676
   40dd0:	29400017 	ldw	r5,0(r5)
   40dd4:	18c00054 	ori	r3,r3,1
   40dd8:	20c00115 	stw	r3,4(r4)
   40ddc:	00c00174 	movhi	r3,5
   40de0:	1145c83a 	sub	r2,r2,r5
   40de4:	18d05504 	addi	r3,r3,16724
   40de8:	18800015 	stw	r2,0(r3)
   40dec:	003fd306 	br	40d3c <__alt_data_end+0xfffd4e1c>

00040df0 <_free_r>:
   40df0:	28004126 	beq	r5,zero,40ef8 <_free_r+0x108>
   40df4:	defffd04 	addi	sp,sp,-12
   40df8:	dc400115 	stw	r17,4(sp)
   40dfc:	dc000015 	stw	r16,0(sp)
   40e00:	2023883a 	mov	r17,r4
   40e04:	2821883a 	mov	r16,r5
   40e08:	dfc00215 	stw	ra,8(sp)
   40e0c:	004e2dc0 	call	4e2dc <__malloc_lock>
   40e10:	81ffff17 	ldw	r7,-4(r16)
   40e14:	00bfff84 	movi	r2,-2
   40e18:	01000174 	movhi	r4,5
   40e1c:	81bffe04 	addi	r6,r16,-8
   40e20:	3884703a 	and	r2,r7,r2
   40e24:	2103c404 	addi	r4,r4,3856
   40e28:	308b883a 	add	r5,r6,r2
   40e2c:	2a400117 	ldw	r9,4(r5)
   40e30:	22000217 	ldw	r8,8(r4)
   40e34:	00ffff04 	movi	r3,-4
   40e38:	48c6703a 	and	r3,r9,r3
   40e3c:	2a005726 	beq	r5,r8,40f9c <_free_r+0x1ac>
   40e40:	28c00115 	stw	r3,4(r5)
   40e44:	39c0004c 	andi	r7,r7,1
   40e48:	3800091e 	bne	r7,zero,40e70 <_free_r+0x80>
   40e4c:	823ffe17 	ldw	r8,-8(r16)
   40e50:	22400204 	addi	r9,r4,8
   40e54:	320dc83a 	sub	r6,r6,r8
   40e58:	31c00217 	ldw	r7,8(r6)
   40e5c:	1205883a 	add	r2,r2,r8
   40e60:	3a406526 	beq	r7,r9,40ff8 <_free_r+0x208>
   40e64:	32000317 	ldw	r8,12(r6)
   40e68:	3a000315 	stw	r8,12(r7)
   40e6c:	41c00215 	stw	r7,8(r8)
   40e70:	28cf883a 	add	r7,r5,r3
   40e74:	39c00117 	ldw	r7,4(r7)
   40e78:	39c0004c 	andi	r7,r7,1
   40e7c:	38003a26 	beq	r7,zero,40f68 <_free_r+0x178>
   40e80:	10c00054 	ori	r3,r2,1
   40e84:	30c00115 	stw	r3,4(r6)
   40e88:	3087883a 	add	r3,r6,r2
   40e8c:	18800015 	stw	r2,0(r3)
   40e90:	00c07fc4 	movi	r3,511
   40e94:	18801936 	bltu	r3,r2,40efc <_free_r+0x10c>
   40e98:	1004d0fa 	srli	r2,r2,3
   40e9c:	01c00044 	movi	r7,1
   40ea0:	21400117 	ldw	r5,4(r4)
   40ea4:	10c00044 	addi	r3,r2,1
   40ea8:	18c7883a 	add	r3,r3,r3
   40eac:	1005d0ba 	srai	r2,r2,2
   40eb0:	18c7883a 	add	r3,r3,r3
   40eb4:	18c7883a 	add	r3,r3,r3
   40eb8:	1907883a 	add	r3,r3,r4
   40ebc:	3884983a 	sll	r2,r7,r2
   40ec0:	19c00017 	ldw	r7,0(r3)
   40ec4:	1a3ffe04 	addi	r8,r3,-8
   40ec8:	1144b03a 	or	r2,r2,r5
   40ecc:	32000315 	stw	r8,12(r6)
   40ed0:	31c00215 	stw	r7,8(r6)
   40ed4:	20800115 	stw	r2,4(r4)
   40ed8:	19800015 	stw	r6,0(r3)
   40edc:	39800315 	stw	r6,12(r7)
   40ee0:	8809883a 	mov	r4,r17
   40ee4:	dfc00217 	ldw	ra,8(sp)
   40ee8:	dc400117 	ldw	r17,4(sp)
   40eec:	dc000017 	ldw	r16,0(sp)
   40ef0:	dec00304 	addi	sp,sp,12
   40ef4:	004e3001 	jmpi	4e300 <__malloc_unlock>
   40ef8:	f800283a 	ret
   40efc:	100ad27a 	srli	r5,r2,9
   40f00:	00c00104 	movi	r3,4
   40f04:	19404a36 	bltu	r3,r5,41030 <_free_r+0x240>
   40f08:	100ad1ba 	srli	r5,r2,6
   40f0c:	28c00e44 	addi	r3,r5,57
   40f10:	18c7883a 	add	r3,r3,r3
   40f14:	29400e04 	addi	r5,r5,56
   40f18:	18c7883a 	add	r3,r3,r3
   40f1c:	18c7883a 	add	r3,r3,r3
   40f20:	1909883a 	add	r4,r3,r4
   40f24:	20c00017 	ldw	r3,0(r4)
   40f28:	01c00174 	movhi	r7,5
   40f2c:	213ffe04 	addi	r4,r4,-8
   40f30:	39c3c404 	addi	r7,r7,3856
   40f34:	20c04426 	beq	r4,r3,41048 <_free_r+0x258>
   40f38:	01ffff04 	movi	r7,-4
   40f3c:	19400117 	ldw	r5,4(r3)
   40f40:	29ca703a 	and	r5,r5,r7
   40f44:	1140022e 	bgeu	r2,r5,40f50 <_free_r+0x160>
   40f48:	18c00217 	ldw	r3,8(r3)
   40f4c:	20fffb1e 	bne	r4,r3,40f3c <__alt_data_end+0xfffd501c>
   40f50:	19000317 	ldw	r4,12(r3)
   40f54:	31000315 	stw	r4,12(r6)
   40f58:	30c00215 	stw	r3,8(r6)
   40f5c:	21800215 	stw	r6,8(r4)
   40f60:	19800315 	stw	r6,12(r3)
   40f64:	003fde06 	br	40ee0 <__alt_data_end+0xfffd4fc0>
   40f68:	29c00217 	ldw	r7,8(r5)
   40f6c:	10c5883a 	add	r2,r2,r3
   40f70:	00c00174 	movhi	r3,5
   40f74:	18c3c604 	addi	r3,r3,3864
   40f78:	38c03b26 	beq	r7,r3,41068 <_free_r+0x278>
   40f7c:	2a000317 	ldw	r8,12(r5)
   40f80:	11400054 	ori	r5,r2,1
   40f84:	3087883a 	add	r3,r6,r2
   40f88:	3a000315 	stw	r8,12(r7)
   40f8c:	41c00215 	stw	r7,8(r8)
   40f90:	31400115 	stw	r5,4(r6)
   40f94:	18800015 	stw	r2,0(r3)
   40f98:	003fbd06 	br	40e90 <__alt_data_end+0xfffd4f70>
   40f9c:	39c0004c 	andi	r7,r7,1
   40fa0:	10c5883a 	add	r2,r2,r3
   40fa4:	3800071e 	bne	r7,zero,40fc4 <_free_r+0x1d4>
   40fa8:	81fffe17 	ldw	r7,-8(r16)
   40fac:	31cdc83a 	sub	r6,r6,r7
   40fb0:	30c00317 	ldw	r3,12(r6)
   40fb4:	31400217 	ldw	r5,8(r6)
   40fb8:	11c5883a 	add	r2,r2,r7
   40fbc:	28c00315 	stw	r3,12(r5)
   40fc0:	19400215 	stw	r5,8(r3)
   40fc4:	10c00054 	ori	r3,r2,1
   40fc8:	30c00115 	stw	r3,4(r6)
   40fcc:	00c00174 	movhi	r3,5
   40fd0:	18c97404 	addi	r3,r3,9680
   40fd4:	18c00017 	ldw	r3,0(r3)
   40fd8:	21800215 	stw	r6,8(r4)
   40fdc:	10ffc036 	bltu	r2,r3,40ee0 <__alt_data_end+0xfffd4fc0>
   40fe0:	00800174 	movhi	r2,5
   40fe4:	10904a04 	addi	r2,r2,16680
   40fe8:	11400017 	ldw	r5,0(r2)
   40fec:	8809883a 	mov	r4,r17
   40ff0:	0040ccc0 	call	40ccc <_malloc_trim_r>
   40ff4:	003fba06 	br	40ee0 <__alt_data_end+0xfffd4fc0>
   40ff8:	28c9883a 	add	r4,r5,r3
   40ffc:	21000117 	ldw	r4,4(r4)
   41000:	2100004c 	andi	r4,r4,1
   41004:	2000391e 	bne	r4,zero,410ec <_free_r+0x2fc>
   41008:	29c00217 	ldw	r7,8(r5)
   4100c:	29000317 	ldw	r4,12(r5)
   41010:	1885883a 	add	r2,r3,r2
   41014:	10c00054 	ori	r3,r2,1
   41018:	39000315 	stw	r4,12(r7)
   4101c:	21c00215 	stw	r7,8(r4)
   41020:	30c00115 	stw	r3,4(r6)
   41024:	308d883a 	add	r6,r6,r2
   41028:	30800015 	stw	r2,0(r6)
   4102c:	003fac06 	br	40ee0 <__alt_data_end+0xfffd4fc0>
   41030:	00c00504 	movi	r3,20
   41034:	19401536 	bltu	r3,r5,4108c <_free_r+0x29c>
   41038:	28c01704 	addi	r3,r5,92
   4103c:	18c7883a 	add	r3,r3,r3
   41040:	294016c4 	addi	r5,r5,91
   41044:	003fb406 	br	40f18 <__alt_data_end+0xfffd4ff8>
   41048:	280bd0ba 	srai	r5,r5,2
   4104c:	00c00044 	movi	r3,1
   41050:	38800117 	ldw	r2,4(r7)
   41054:	194a983a 	sll	r5,r3,r5
   41058:	2007883a 	mov	r3,r4
   4105c:	2884b03a 	or	r2,r5,r2
   41060:	38800115 	stw	r2,4(r7)
   41064:	003fbb06 	br	40f54 <__alt_data_end+0xfffd5034>
   41068:	21800515 	stw	r6,20(r4)
   4106c:	21800415 	stw	r6,16(r4)
   41070:	10c00054 	ori	r3,r2,1
   41074:	31c00315 	stw	r7,12(r6)
   41078:	31c00215 	stw	r7,8(r6)
   4107c:	30c00115 	stw	r3,4(r6)
   41080:	308d883a 	add	r6,r6,r2
   41084:	30800015 	stw	r2,0(r6)
   41088:	003f9506 	br	40ee0 <__alt_data_end+0xfffd4fc0>
   4108c:	00c01504 	movi	r3,84
   41090:	19400536 	bltu	r3,r5,410a8 <_free_r+0x2b8>
   41094:	100ad33a 	srli	r5,r2,12
   41098:	28c01bc4 	addi	r3,r5,111
   4109c:	18c7883a 	add	r3,r3,r3
   410a0:	29401b84 	addi	r5,r5,110
   410a4:	003f9c06 	br	40f18 <__alt_data_end+0xfffd4ff8>
   410a8:	00c05504 	movi	r3,340
   410ac:	19400536 	bltu	r3,r5,410c4 <_free_r+0x2d4>
   410b0:	100ad3fa 	srli	r5,r2,15
   410b4:	28c01e04 	addi	r3,r5,120
   410b8:	18c7883a 	add	r3,r3,r3
   410bc:	29401dc4 	addi	r5,r5,119
   410c0:	003f9506 	br	40f18 <__alt_data_end+0xfffd4ff8>
   410c4:	00c15504 	movi	r3,1364
   410c8:	19400536 	bltu	r3,r5,410e0 <_free_r+0x2f0>
   410cc:	100ad4ba 	srli	r5,r2,18
   410d0:	28c01f44 	addi	r3,r5,125
   410d4:	18c7883a 	add	r3,r3,r3
   410d8:	29401f04 	addi	r5,r5,124
   410dc:	003f8e06 	br	40f18 <__alt_data_end+0xfffd4ff8>
   410e0:	00c03f84 	movi	r3,254
   410e4:	01401f84 	movi	r5,126
   410e8:	003f8b06 	br	40f18 <__alt_data_end+0xfffd4ff8>
   410ec:	10c00054 	ori	r3,r2,1
   410f0:	30c00115 	stw	r3,4(r6)
   410f4:	308d883a 	add	r6,r6,r2
   410f8:	30800015 	stw	r2,0(r6)
   410fc:	003f7806 	br	40ee0 <__alt_data_end+0xfffd4fc0>

00041100 <_fseek_r>:
   41100:	00411201 	jmpi	41120 <_fseeko_r>

00041104 <fseek>:
   41104:	00800174 	movhi	r2,5
   41108:	10897204 	addi	r2,r2,9672
   4110c:	300f883a 	mov	r7,r6
   41110:	280d883a 	mov	r6,r5
   41114:	200b883a 	mov	r5,r4
   41118:	11000017 	ldw	r4,0(r2)
   4111c:	00411201 	jmpi	41120 <_fseeko_r>

00041120 <_fseeko_r>:
   41120:	deffe804 	addi	sp,sp,-96
   41124:	dd401415 	stw	r21,80(sp)
   41128:	dc801115 	stw	r18,68(sp)
   4112c:	dc401015 	stw	r17,64(sp)
   41130:	dc000f15 	stw	r16,60(sp)
   41134:	dfc01715 	stw	ra,92(sp)
   41138:	ddc01615 	stw	r23,88(sp)
   4113c:	dd801515 	stw	r22,84(sp)
   41140:	dd001315 	stw	r20,76(sp)
   41144:	dcc01215 	stw	r19,72(sp)
   41148:	2023883a 	mov	r17,r4
   4114c:	2821883a 	mov	r16,r5
   41150:	302b883a 	mov	r21,r6
   41154:	3825883a 	mov	r18,r7
   41158:	20000226 	beq	r4,zero,41164 <_fseeko_r+0x44>
   4115c:	20800e17 	ldw	r2,56(r4)
   41160:	10005a26 	beq	r2,zero,412cc <_fseeko_r+0x1ac>
   41164:	8080030b 	ldhu	r2,12(r16)
   41168:	00c04204 	movi	r3,264
   4116c:	1080420c 	andi	r2,r2,264
   41170:	10c05b26 	beq	r2,r3,412e0 <_fseeko_r+0x1c0>
   41174:	85000a17 	ldw	r20,40(r16)
   41178:	a000f626 	beq	r20,zero,41554 <_fseeko_r+0x434>
   4117c:	00800044 	movi	r2,1
   41180:	90803e26 	beq	r18,r2,4127c <_fseeko_r+0x15c>
   41184:	00800084 	movi	r2,2
   41188:	90801026 	beq	r18,r2,411cc <_fseeko_r+0xac>
   4118c:	90000f26 	beq	r18,zero,411cc <_fseeko_r+0xac>
   41190:	00800584 	movi	r2,22
   41194:	88800015 	stw	r2,0(r17)
   41198:	04ffffc4 	movi	r19,-1
   4119c:	9805883a 	mov	r2,r19
   411a0:	dfc01717 	ldw	ra,92(sp)
   411a4:	ddc01617 	ldw	r23,88(sp)
   411a8:	dd801517 	ldw	r22,84(sp)
   411ac:	dd401417 	ldw	r21,80(sp)
   411b0:	dd001317 	ldw	r20,76(sp)
   411b4:	dcc01217 	ldw	r19,72(sp)
   411b8:	dc801117 	ldw	r18,68(sp)
   411bc:	dc401017 	ldw	r17,64(sp)
   411c0:	dc000f17 	ldw	r16,60(sp)
   411c4:	dec01804 	addi	sp,sp,96
   411c8:	f800283a 	ret
   411cc:	80800417 	ldw	r2,16(r16)
   411d0:	002f883a 	mov	r23,zero
   411d4:	0027883a 	mov	r19,zero
   411d8:	1000cb26 	beq	r2,zero,41508 <_fseeko_r+0x3e8>
   411dc:	8080030b 	ldhu	r2,12(r16)
   411e0:	10c2068c 	andi	r3,r2,2074
   411e4:	1800071e 	bne	r3,zero,41204 <_fseeko_r+0xe4>
   411e8:	10c1000c 	andi	r3,r2,1024
   411ec:	1800451e 	bne	r3,zero,41304 <_fseeko_r+0x1e4>
   411f0:	00c00134 	movhi	r3,4
   411f4:	18ca0904 	addi	r3,r3,10276
   411f8:	a0c0b726 	beq	r20,r3,414d8 <_fseeko_r+0x3b8>
   411fc:	10820014 	ori	r2,r2,2048
   41200:	8080030d 	sth	r2,12(r16)
   41204:	800b883a 	mov	r5,r16
   41208:	8809883a 	mov	r4,r17
   4120c:	00407380 	call	40738 <_fflush_r>
   41210:	1027883a 	mov	r19,r2
   41214:	103fe01e 	bne	r2,zero,41198 <__alt_data_end+0xfffd5278>
   41218:	81400717 	ldw	r5,28(r16)
   4121c:	900f883a 	mov	r7,r18
   41220:	a80d883a 	mov	r6,r21
   41224:	8809883a 	mov	r4,r17
   41228:	a03ee83a 	callr	r20
   4122c:	00ffffc4 	movi	r3,-1
   41230:	10ffd926 	beq	r2,r3,41198 <__alt_data_end+0xfffd5278>
   41234:	81400c17 	ldw	r5,48(r16)
   41238:	28000526 	beq	r5,zero,41250 <_fseeko_r+0x130>
   4123c:	80801004 	addi	r2,r16,64
   41240:	28800226 	beq	r5,r2,4124c <_fseeko_r+0x12c>
   41244:	8809883a 	mov	r4,r17
   41248:	0040df00 	call	40df0 <_free_r>
   4124c:	80000c15 	stw	zero,48(r16)
   41250:	8080030b 	ldhu	r2,12(r16)
   41254:	80c00417 	ldw	r3,16(r16)
   41258:	80000115 	stw	zero,4(r16)
   4125c:	10bdf7cc 	andi	r2,r2,63455
   41260:	80c00015 	stw	r3,0(r16)
   41264:	8080030d 	sth	r2,12(r16)
   41268:	01800204 	movi	r6,8
   4126c:	000b883a 	mov	r5,zero
   41270:	81001704 	addi	r4,r16,92
   41274:	00422240 	call	42224 <memset>
   41278:	003fc806 	br	4119c <__alt_data_end+0xfffd527c>
   4127c:	800b883a 	mov	r5,r16
   41280:	8809883a 	mov	r4,r17
   41284:	00407380 	call	40738 <_fflush_r>
   41288:	8080030b 	ldhu	r2,12(r16)
   4128c:	10c4000c 	andi	r3,r2,4096
   41290:	18008726 	beq	r3,zero,414b0 <_fseeko_r+0x390>
   41294:	84c01417 	ldw	r19,80(r16)
   41298:	10c0010c 	andi	r3,r2,4
   4129c:	1800431e 	bne	r3,zero,413ac <_fseeko_r+0x28c>
   412a0:	1080020c 	andi	r2,r2,8
   412a4:	10008026 	beq	r2,zero,414a8 <_fseeko_r+0x388>
   412a8:	80c00017 	ldw	r3,0(r16)
   412ac:	80800417 	ldw	r2,16(r16)
   412b0:	18000226 	beq	r3,zero,412bc <_fseeko_r+0x19c>
   412b4:	1887c83a 	sub	r3,r3,r2
   412b8:	98e7883a 	add	r19,r19,r3
   412bc:	aceb883a 	add	r21,r21,r19
   412c0:	05c00044 	movi	r23,1
   412c4:	0025883a 	mov	r18,zero
   412c8:	003fc306 	br	411d8 <__alt_data_end+0xfffd52b8>
   412cc:	0040b240 	call	40b24 <__sinit>
   412d0:	8080030b 	ldhu	r2,12(r16)
   412d4:	00c04204 	movi	r3,264
   412d8:	1080420c 	andi	r2,r2,264
   412dc:	10ffa51e 	bne	r2,r3,41174 <__alt_data_end+0xfffd5254>
   412e0:	800b883a 	mov	r5,r16
   412e4:	8809883a 	mov	r4,r17
   412e8:	00407380 	call	40738 <_fflush_r>
   412ec:	003fa106 	br	41174 <__alt_data_end+0xfffd5254>
   412f0:	8080030b 	ldhu	r2,12(r16)
   412f4:	00c10004 	movi	r3,1024
   412f8:	80c01315 	stw	r3,76(r16)
   412fc:	10c4b03a 	or	r2,r2,r3
   41300:	8080030d 	sth	r2,12(r16)
   41304:	9000311e 	bne	r18,zero,413cc <_fseeko_r+0x2ac>
   41308:	a82d883a 	mov	r22,r21
   4130c:	b800371e 	bne	r23,zero,413ec <_fseeko_r+0x2cc>
   41310:	8080030b 	ldhu	r2,12(r16)
   41314:	1084000c 	andi	r2,r2,4096
   41318:	10007f26 	beq	r2,zero,41518 <_fseeko_r+0x3f8>
   4131c:	80801417 	ldw	r2,80(r16)
   41320:	81800117 	ldw	r6,4(r16)
   41324:	81400c17 	ldw	r5,48(r16)
   41328:	11a7c83a 	sub	r19,r2,r6
   4132c:	28008226 	beq	r5,zero,41538 <_fseeko_r+0x418>
   41330:	81c00f17 	ldw	r7,60(r16)
   41334:	99e7c83a 	sub	r19,r19,r7
   41338:	81000e17 	ldw	r4,56(r16)
   4133c:	80800417 	ldw	r2,16(r16)
   41340:	99a7883a 	add	r19,r19,r6
   41344:	2087c83a 	sub	r3,r4,r2
   41348:	98e7c83a 	sub	r19,r19,r3
   4134c:	38c7883a 	add	r3,r7,r3
   41350:	b4c02b16 	blt	r22,r19,41400 <_fseeko_r+0x2e0>
   41354:	98c9883a 	add	r4,r19,r3
   41358:	b100292e 	bgeu	r22,r4,41400 <_fseeko_r+0x2e0>
   4135c:	b4e7c83a 	sub	r19,r22,r19
   41360:	14c5883a 	add	r2,r2,r19
   41364:	1ce7c83a 	sub	r19,r3,r19
   41368:	80800015 	stw	r2,0(r16)
   4136c:	84c00115 	stw	r19,4(r16)
   41370:	28000526 	beq	r5,zero,41388 <_fseeko_r+0x268>
   41374:	80801004 	addi	r2,r16,64
   41378:	28800226 	beq	r5,r2,41384 <_fseeko_r+0x264>
   4137c:	8809883a 	mov	r4,r17
   41380:	0040df00 	call	40df0 <_free_r>
   41384:	80000c15 	stw	zero,48(r16)
   41388:	8080030b 	ldhu	r2,12(r16)
   4138c:	01800204 	movi	r6,8
   41390:	000b883a 	mov	r5,zero
   41394:	10bff7cc 	andi	r2,r2,65503
   41398:	8080030d 	sth	r2,12(r16)
   4139c:	81001704 	addi	r4,r16,92
   413a0:	00422240 	call	42224 <memset>
   413a4:	0027883a 	mov	r19,zero
   413a8:	003f7c06 	br	4119c <__alt_data_end+0xfffd527c>
   413ac:	80c00117 	ldw	r3,4(r16)
   413b0:	80800c17 	ldw	r2,48(r16)
   413b4:	98e7c83a 	sub	r19,r19,r3
   413b8:	10003b26 	beq	r2,zero,414a8 <_fseeko_r+0x388>
   413bc:	80c00f17 	ldw	r3,60(r16)
   413c0:	80800417 	ldw	r2,16(r16)
   413c4:	98e7c83a 	sub	r19,r19,r3
   413c8:	003fbc06 	br	412bc <__alt_data_end+0xfffd539c>
   413cc:	8140038f 	ldh	r5,14(r16)
   413d0:	d80d883a 	mov	r6,sp
   413d4:	8809883a 	mov	r4,r17
   413d8:	00415800 	call	41580 <_fstat_r>
   413dc:	103f891e 	bne	r2,zero,41204 <__alt_data_end+0xfffd52e4>
   413e0:	dd800417 	ldw	r22,16(sp)
   413e4:	adad883a 	add	r22,r21,r22
   413e8:	b83fc926 	beq	r23,zero,41310 <__alt_data_end+0xfffd53f0>
   413ec:	81400c17 	ldw	r5,48(r16)
   413f0:	81800117 	ldw	r6,4(r16)
   413f4:	28005026 	beq	r5,zero,41538 <_fseeko_r+0x418>
   413f8:	81c00f17 	ldw	r7,60(r16)
   413fc:	003fce06 	br	41338 <__alt_data_end+0xfffd5418>
   41400:	84c01317 	ldw	r19,76(r16)
   41404:	81400717 	ldw	r5,28(r16)
   41408:	000f883a 	mov	r7,zero
   4140c:	04e7c83a 	sub	r19,zero,r19
   41410:	9da6703a 	and	r19,r19,r22
   41414:	980d883a 	mov	r6,r19
   41418:	8809883a 	mov	r4,r17
   4141c:	a03ee83a 	callr	r20
   41420:	00ffffc4 	movi	r3,-1
   41424:	10ff7726 	beq	r2,r3,41204 <__alt_data_end+0xfffd52e4>
   41428:	80800417 	ldw	r2,16(r16)
   4142c:	81400c17 	ldw	r5,48(r16)
   41430:	80000115 	stw	zero,4(r16)
   41434:	80800015 	stw	r2,0(r16)
   41438:	28000526 	beq	r5,zero,41450 <_fseeko_r+0x330>
   4143c:	80801004 	addi	r2,r16,64
   41440:	28800226 	beq	r5,r2,4144c <_fseeko_r+0x32c>
   41444:	8809883a 	mov	r4,r17
   41448:	0040df00 	call	40df0 <_free_r>
   4144c:	80000c15 	stw	zero,48(r16)
   41450:	8080030b 	ldhu	r2,12(r16)
   41454:	b4e7c83a 	sub	r19,r22,r19
   41458:	10bff7cc 	andi	r2,r2,65503
   4145c:	8080030d 	sth	r2,12(r16)
   41460:	98000b26 	beq	r19,zero,41490 <_fseeko_r+0x370>
   41464:	800b883a 	mov	r5,r16
   41468:	8809883a 	mov	r4,r17
   4146c:	004249c0 	call	4249c <__srefill_r>
   41470:	103f641e 	bne	r2,zero,41204 <__alt_data_end+0xfffd52e4>
   41474:	80800117 	ldw	r2,4(r16)
   41478:	14ff6236 	bltu	r2,r19,41204 <__alt_data_end+0xfffd52e4>
   4147c:	80c00017 	ldw	r3,0(r16)
   41480:	14c5c83a 	sub	r2,r2,r19
   41484:	80800115 	stw	r2,4(r16)
   41488:	1ce7883a 	add	r19,r3,r19
   4148c:	84c00015 	stw	r19,0(r16)
   41490:	01800204 	movi	r6,8
   41494:	000b883a 	mov	r5,zero
   41498:	81001704 	addi	r4,r16,92
   4149c:	00422240 	call	42224 <memset>
   414a0:	0027883a 	mov	r19,zero
   414a4:	003f3d06 	br	4119c <__alt_data_end+0xfffd527c>
   414a8:	80800417 	ldw	r2,16(r16)
   414ac:	003f8306 	br	412bc <__alt_data_end+0xfffd539c>
   414b0:	81400717 	ldw	r5,28(r16)
   414b4:	900f883a 	mov	r7,r18
   414b8:	000d883a 	mov	r6,zero
   414bc:	8809883a 	mov	r4,r17
   414c0:	a03ee83a 	callr	r20
   414c4:	1027883a 	mov	r19,r2
   414c8:	00bfffc4 	movi	r2,-1
   414cc:	98bf3226 	beq	r19,r2,41198 <__alt_data_end+0xfffd5278>
   414d0:	8080030b 	ldhu	r2,12(r16)
   414d4:	003f7006 	br	41298 <__alt_data_end+0xfffd5378>
   414d8:	8140038f 	ldh	r5,14(r16)
   414dc:	283f4716 	blt	r5,zero,411fc <__alt_data_end+0xfffd52dc>
   414e0:	d80d883a 	mov	r6,sp
   414e4:	8809883a 	mov	r4,r17
   414e8:	00415800 	call	41580 <_fstat_r>
   414ec:	1000041e 	bne	r2,zero,41500 <_fseeko_r+0x3e0>
   414f0:	d8800117 	ldw	r2,4(sp)
   414f4:	00e00014 	movui	r3,32768
   414f8:	10bc000c 	andi	r2,r2,61440
   414fc:	10ff7c26 	beq	r2,r3,412f0 <__alt_data_end+0xfffd53d0>
   41500:	8080030b 	ldhu	r2,12(r16)
   41504:	003f3d06 	br	411fc <__alt_data_end+0xfffd52dc>
   41508:	800b883a 	mov	r5,r16
   4150c:	8809883a 	mov	r4,r17
   41510:	004185c0 	call	4185c <__smakebuf_r>
   41514:	003f3106 	br	411dc <__alt_data_end+0xfffd52bc>
   41518:	81400717 	ldw	r5,28(r16)
   4151c:	01c00044 	movi	r7,1
   41520:	000d883a 	mov	r6,zero
   41524:	8809883a 	mov	r4,r17
   41528:	a03ee83a 	callr	r20
   4152c:	00ffffc4 	movi	r3,-1
   41530:	10ff7b1e 	bne	r2,r3,41320 <__alt_data_end+0xfffd5400>
   41534:	003f3306 	br	41204 <__alt_data_end+0xfffd52e4>
   41538:	80c00017 	ldw	r3,0(r16)
   4153c:	80800417 	ldw	r2,16(r16)
   41540:	000b883a 	mov	r5,zero
   41544:	1887c83a 	sub	r3,r3,r2
   41548:	98e7c83a 	sub	r19,r19,r3
   4154c:	30c7883a 	add	r3,r6,r3
   41550:	003f7f06 	br	41350 <__alt_data_end+0xfffd5430>
   41554:	00800744 	movi	r2,29
   41558:	88800015 	stw	r2,0(r17)
   4155c:	04ffffc4 	movi	r19,-1
   41560:	003f0e06 	br	4119c <__alt_data_end+0xfffd527c>

00041564 <fseeko>:
   41564:	00800174 	movhi	r2,5
   41568:	10897204 	addi	r2,r2,9672
   4156c:	300f883a 	mov	r7,r6
   41570:	280d883a 	mov	r6,r5
   41574:	200b883a 	mov	r5,r4
   41578:	11000017 	ldw	r4,0(r2)
   4157c:	00411201 	jmpi	41120 <_fseeko_r>

00041580 <_fstat_r>:
   41580:	defffd04 	addi	sp,sp,-12
   41584:	2805883a 	mov	r2,r5
   41588:	dc000015 	stw	r16,0(sp)
   4158c:	04000174 	movhi	r16,5
   41590:	dc400115 	stw	r17,4(sp)
   41594:	84104704 	addi	r16,r16,16668
   41598:	2023883a 	mov	r17,r4
   4159c:	300b883a 	mov	r5,r6
   415a0:	1009883a 	mov	r4,r2
   415a4:	dfc00215 	stw	ra,8(sp)
   415a8:	80000015 	stw	zero,0(r16)
   415ac:	004debc0 	call	4debc <fstat>
   415b0:	00ffffc4 	movi	r3,-1
   415b4:	10c00526 	beq	r2,r3,415cc <_fstat_r+0x4c>
   415b8:	dfc00217 	ldw	ra,8(sp)
   415bc:	dc400117 	ldw	r17,4(sp)
   415c0:	dc000017 	ldw	r16,0(sp)
   415c4:	dec00304 	addi	sp,sp,12
   415c8:	f800283a 	ret
   415cc:	80c00017 	ldw	r3,0(r16)
   415d0:	183ff926 	beq	r3,zero,415b8 <__alt_data_end+0xfffd5698>
   415d4:	88c00015 	stw	r3,0(r17)
   415d8:	003ff706 	br	415b8 <__alt_data_end+0xfffd5698>

000415dc <_fwalk>:
   415dc:	defff704 	addi	sp,sp,-36
   415e0:	dd000415 	stw	r20,16(sp)
   415e4:	dfc00815 	stw	ra,32(sp)
   415e8:	ddc00715 	stw	r23,28(sp)
   415ec:	dd800615 	stw	r22,24(sp)
   415f0:	dd400515 	stw	r21,20(sp)
   415f4:	dcc00315 	stw	r19,12(sp)
   415f8:	dc800215 	stw	r18,8(sp)
   415fc:	dc400115 	stw	r17,4(sp)
   41600:	dc000015 	stw	r16,0(sp)
   41604:	2500b804 	addi	r20,r4,736
   41608:	a0002326 	beq	r20,zero,41698 <_fwalk+0xbc>
   4160c:	282b883a 	mov	r21,r5
   41610:	002f883a 	mov	r23,zero
   41614:	05800044 	movi	r22,1
   41618:	04ffffc4 	movi	r19,-1
   4161c:	a4400117 	ldw	r17,4(r20)
   41620:	a4800217 	ldw	r18,8(r20)
   41624:	8c7fffc4 	addi	r17,r17,-1
   41628:	88000d16 	blt	r17,zero,41660 <_fwalk+0x84>
   4162c:	94000304 	addi	r16,r18,12
   41630:	94800384 	addi	r18,r18,14
   41634:	8080000b 	ldhu	r2,0(r16)
   41638:	8c7fffc4 	addi	r17,r17,-1
   4163c:	813ffd04 	addi	r4,r16,-12
   41640:	b080042e 	bgeu	r22,r2,41654 <_fwalk+0x78>
   41644:	9080000f 	ldh	r2,0(r18)
   41648:	14c00226 	beq	r2,r19,41654 <_fwalk+0x78>
   4164c:	a83ee83a 	callr	r21
   41650:	b8aeb03a 	or	r23,r23,r2
   41654:	84001a04 	addi	r16,r16,104
   41658:	94801a04 	addi	r18,r18,104
   4165c:	8cfff51e 	bne	r17,r19,41634 <__alt_data_end+0xfffd5714>
   41660:	a5000017 	ldw	r20,0(r20)
   41664:	a03fed1e 	bne	r20,zero,4161c <__alt_data_end+0xfffd56fc>
   41668:	b805883a 	mov	r2,r23
   4166c:	dfc00817 	ldw	ra,32(sp)
   41670:	ddc00717 	ldw	r23,28(sp)
   41674:	dd800617 	ldw	r22,24(sp)
   41678:	dd400517 	ldw	r21,20(sp)
   4167c:	dd000417 	ldw	r20,16(sp)
   41680:	dcc00317 	ldw	r19,12(sp)
   41684:	dc800217 	ldw	r18,8(sp)
   41688:	dc400117 	ldw	r17,4(sp)
   4168c:	dc000017 	ldw	r16,0(sp)
   41690:	dec00904 	addi	sp,sp,36
   41694:	f800283a 	ret
   41698:	002f883a 	mov	r23,zero
   4169c:	003ff206 	br	41668 <__alt_data_end+0xfffd5748>

000416a0 <_fwalk_reent>:
   416a0:	defff704 	addi	sp,sp,-36
   416a4:	dd000415 	stw	r20,16(sp)
   416a8:	dfc00815 	stw	ra,32(sp)
   416ac:	ddc00715 	stw	r23,28(sp)
   416b0:	dd800615 	stw	r22,24(sp)
   416b4:	dd400515 	stw	r21,20(sp)
   416b8:	dcc00315 	stw	r19,12(sp)
   416bc:	dc800215 	stw	r18,8(sp)
   416c0:	dc400115 	stw	r17,4(sp)
   416c4:	dc000015 	stw	r16,0(sp)
   416c8:	2500b804 	addi	r20,r4,736
   416cc:	a0002326 	beq	r20,zero,4175c <_fwalk_reent+0xbc>
   416d0:	282b883a 	mov	r21,r5
   416d4:	2027883a 	mov	r19,r4
   416d8:	002f883a 	mov	r23,zero
   416dc:	05800044 	movi	r22,1
   416e0:	04bfffc4 	movi	r18,-1
   416e4:	a4400117 	ldw	r17,4(r20)
   416e8:	a4000217 	ldw	r16,8(r20)
   416ec:	8c7fffc4 	addi	r17,r17,-1
   416f0:	88000c16 	blt	r17,zero,41724 <_fwalk_reent+0x84>
   416f4:	84000304 	addi	r16,r16,12
   416f8:	8080000b 	ldhu	r2,0(r16)
   416fc:	8c7fffc4 	addi	r17,r17,-1
   41700:	817ffd04 	addi	r5,r16,-12
   41704:	b080052e 	bgeu	r22,r2,4171c <_fwalk_reent+0x7c>
   41708:	8080008f 	ldh	r2,2(r16)
   4170c:	9809883a 	mov	r4,r19
   41710:	14800226 	beq	r2,r18,4171c <_fwalk_reent+0x7c>
   41714:	a83ee83a 	callr	r21
   41718:	b8aeb03a 	or	r23,r23,r2
   4171c:	84001a04 	addi	r16,r16,104
   41720:	8cbff51e 	bne	r17,r18,416f8 <__alt_data_end+0xfffd57d8>
   41724:	a5000017 	ldw	r20,0(r20)
   41728:	a03fee1e 	bne	r20,zero,416e4 <__alt_data_end+0xfffd57c4>
   4172c:	b805883a 	mov	r2,r23
   41730:	dfc00817 	ldw	ra,32(sp)
   41734:	ddc00717 	ldw	r23,28(sp)
   41738:	dd800617 	ldw	r22,24(sp)
   4173c:	dd400517 	ldw	r21,20(sp)
   41740:	dd000417 	ldw	r20,16(sp)
   41744:	dcc00317 	ldw	r19,12(sp)
   41748:	dc800217 	ldw	r18,8(sp)
   4174c:	dc400117 	ldw	r17,4(sp)
   41750:	dc000017 	ldw	r16,0(sp)
   41754:	dec00904 	addi	sp,sp,36
   41758:	f800283a 	ret
   4175c:	002f883a 	mov	r23,zero
   41760:	003ff206 	br	4172c <__alt_data_end+0xfffd580c>

00041764 <_getc_r>:
   41764:	defffd04 	addi	sp,sp,-12
   41768:	dc000115 	stw	r16,4(sp)
   4176c:	dfc00215 	stw	ra,8(sp)
   41770:	2021883a 	mov	r16,r4
   41774:	20000226 	beq	r4,zero,41780 <_getc_r+0x1c>
   41778:	20800e17 	ldw	r2,56(r4)
   4177c:	10000c26 	beq	r2,zero,417b0 <_getc_r+0x4c>
   41780:	28800117 	ldw	r2,4(r5)
   41784:	10bfffc4 	addi	r2,r2,-1
   41788:	28800115 	stw	r2,4(r5)
   4178c:	10000c16 	blt	r2,zero,417c0 <_getc_r+0x5c>
   41790:	28800017 	ldw	r2,0(r5)
   41794:	10c00044 	addi	r3,r2,1
   41798:	28c00015 	stw	r3,0(r5)
   4179c:	10800003 	ldbu	r2,0(r2)
   417a0:	dfc00217 	ldw	ra,8(sp)
   417a4:	dc000117 	ldw	r16,4(sp)
   417a8:	dec00304 	addi	sp,sp,12
   417ac:	f800283a 	ret
   417b0:	d9400015 	stw	r5,0(sp)
   417b4:	0040b240 	call	40b24 <__sinit>
   417b8:	d9400017 	ldw	r5,0(sp)
   417bc:	003ff006 	br	41780 <__alt_data_end+0xfffd5860>
   417c0:	8009883a 	mov	r4,r16
   417c4:	dfc00217 	ldw	ra,8(sp)
   417c8:	dc000117 	ldw	r16,4(sp)
   417cc:	dec00304 	addi	sp,sp,12
   417d0:	00426701 	jmpi	42670 <__srget_r>

000417d4 <getc>:
   417d4:	00800174 	movhi	r2,5
   417d8:	defffd04 	addi	sp,sp,-12
   417dc:	10897204 	addi	r2,r2,9672
   417e0:	dc400115 	stw	r17,4(sp)
   417e4:	14400017 	ldw	r17,0(r2)
   417e8:	dc000015 	stw	r16,0(sp)
   417ec:	dfc00215 	stw	ra,8(sp)
   417f0:	2021883a 	mov	r16,r4
   417f4:	88000226 	beq	r17,zero,41800 <getc+0x2c>
   417f8:	88800e17 	ldw	r2,56(r17)
   417fc:	10000d26 	beq	r2,zero,41834 <getc+0x60>
   41800:	80800117 	ldw	r2,4(r16)
   41804:	10bfffc4 	addi	r2,r2,-1
   41808:	80800115 	stw	r2,4(r16)
   4180c:	10000c16 	blt	r2,zero,41840 <getc+0x6c>
   41810:	80800017 	ldw	r2,0(r16)
   41814:	10c00044 	addi	r3,r2,1
   41818:	80c00015 	stw	r3,0(r16)
   4181c:	10800003 	ldbu	r2,0(r2)
   41820:	dfc00217 	ldw	ra,8(sp)
   41824:	dc400117 	ldw	r17,4(sp)
   41828:	dc000017 	ldw	r16,0(sp)
   4182c:	dec00304 	addi	sp,sp,12
   41830:	f800283a 	ret
   41834:	8809883a 	mov	r4,r17
   41838:	0040b240 	call	40b24 <__sinit>
   4183c:	003ff006 	br	41800 <__alt_data_end+0xfffd58e0>
   41840:	800b883a 	mov	r5,r16
   41844:	8809883a 	mov	r4,r17
   41848:	dfc00217 	ldw	ra,8(sp)
   4184c:	dc400117 	ldw	r17,4(sp)
   41850:	dc000017 	ldw	r16,0(sp)
   41854:	dec00304 	addi	sp,sp,12
   41858:	00426701 	jmpi	42670 <__srget_r>

0004185c <__smakebuf_r>:
   4185c:	2880030b 	ldhu	r2,12(r5)
   41860:	10c0008c 	andi	r3,r2,2
   41864:	1800411e 	bne	r3,zero,4196c <__smakebuf_r+0x110>
   41868:	deffec04 	addi	sp,sp,-80
   4186c:	dc000f15 	stw	r16,60(sp)
   41870:	2821883a 	mov	r16,r5
   41874:	2940038f 	ldh	r5,14(r5)
   41878:	dc401015 	stw	r17,64(sp)
   4187c:	dfc01315 	stw	ra,76(sp)
   41880:	dcc01215 	stw	r19,72(sp)
   41884:	dc801115 	stw	r18,68(sp)
   41888:	2023883a 	mov	r17,r4
   4188c:	28001c16 	blt	r5,zero,41900 <__smakebuf_r+0xa4>
   41890:	d80d883a 	mov	r6,sp
   41894:	00415800 	call	41580 <_fstat_r>
   41898:	10001816 	blt	r2,zero,418fc <__smakebuf_r+0xa0>
   4189c:	d8800117 	ldw	r2,4(sp)
   418a0:	00e00014 	movui	r3,32768
   418a4:	10bc000c 	andi	r2,r2,61440
   418a8:	14c80020 	cmpeqi	r19,r2,8192
   418ac:	10c03726 	beq	r2,r3,4198c <__smakebuf_r+0x130>
   418b0:	80c0030b 	ldhu	r3,12(r16)
   418b4:	18c20014 	ori	r3,r3,2048
   418b8:	80c0030d 	sth	r3,12(r16)
   418bc:	00c80004 	movi	r3,8192
   418c0:	10c0521e 	bne	r2,r3,41a0c <__smakebuf_r+0x1b0>
   418c4:	8140038f 	ldh	r5,14(r16)
   418c8:	8809883a 	mov	r4,r17
   418cc:	0046d000 	call	46d00 <_isatty_r>
   418d0:	10004c26 	beq	r2,zero,41a04 <__smakebuf_r+0x1a8>
   418d4:	8080030b 	ldhu	r2,12(r16)
   418d8:	80c010c4 	addi	r3,r16,67
   418dc:	80c00015 	stw	r3,0(r16)
   418e0:	10800054 	ori	r2,r2,1
   418e4:	8080030d 	sth	r2,12(r16)
   418e8:	00800044 	movi	r2,1
   418ec:	80c00415 	stw	r3,16(r16)
   418f0:	80800515 	stw	r2,20(r16)
   418f4:	04810004 	movi	r18,1024
   418f8:	00000706 	br	41918 <__smakebuf_r+0xbc>
   418fc:	8080030b 	ldhu	r2,12(r16)
   41900:	10c0200c 	andi	r3,r2,128
   41904:	18001f1e 	bne	r3,zero,41984 <__smakebuf_r+0x128>
   41908:	04810004 	movi	r18,1024
   4190c:	10820014 	ori	r2,r2,2048
   41910:	8080030d 	sth	r2,12(r16)
   41914:	0027883a 	mov	r19,zero
   41918:	900b883a 	mov	r5,r18
   4191c:	8809883a 	mov	r4,r17
   41920:	0041a180 	call	41a18 <_malloc_r>
   41924:	10002c26 	beq	r2,zero,419d8 <__smakebuf_r+0x17c>
   41928:	80c0030b 	ldhu	r3,12(r16)
   4192c:	01000134 	movhi	r4,4
   41930:	2101f304 	addi	r4,r4,1996
   41934:	89000f15 	stw	r4,60(r17)
   41938:	18c02014 	ori	r3,r3,128
   4193c:	80c0030d 	sth	r3,12(r16)
   41940:	80800015 	stw	r2,0(r16)
   41944:	80800415 	stw	r2,16(r16)
   41948:	84800515 	stw	r18,20(r16)
   4194c:	98001a1e 	bne	r19,zero,419b8 <__smakebuf_r+0x15c>
   41950:	dfc01317 	ldw	ra,76(sp)
   41954:	dcc01217 	ldw	r19,72(sp)
   41958:	dc801117 	ldw	r18,68(sp)
   4195c:	dc401017 	ldw	r17,64(sp)
   41960:	dc000f17 	ldw	r16,60(sp)
   41964:	dec01404 	addi	sp,sp,80
   41968:	f800283a 	ret
   4196c:	288010c4 	addi	r2,r5,67
   41970:	28800015 	stw	r2,0(r5)
   41974:	28800415 	stw	r2,16(r5)
   41978:	00800044 	movi	r2,1
   4197c:	28800515 	stw	r2,20(r5)
   41980:	f800283a 	ret
   41984:	04801004 	movi	r18,64
   41988:	003fe006 	br	4190c <__alt_data_end+0xfffd59ec>
   4198c:	81000a17 	ldw	r4,40(r16)
   41990:	00c00134 	movhi	r3,4
   41994:	18ca0904 	addi	r3,r3,10276
   41998:	20ffc51e 	bne	r4,r3,418b0 <__alt_data_end+0xfffd5990>
   4199c:	8080030b 	ldhu	r2,12(r16)
   419a0:	04810004 	movi	r18,1024
   419a4:	84801315 	stw	r18,76(r16)
   419a8:	1484b03a 	or	r2,r2,r18
   419ac:	8080030d 	sth	r2,12(r16)
   419b0:	0027883a 	mov	r19,zero
   419b4:	003fd806 	br	41918 <__alt_data_end+0xfffd59f8>
   419b8:	8140038f 	ldh	r5,14(r16)
   419bc:	8809883a 	mov	r4,r17
   419c0:	0046d000 	call	46d00 <_isatty_r>
   419c4:	103fe226 	beq	r2,zero,41950 <__alt_data_end+0xfffd5a30>
   419c8:	8080030b 	ldhu	r2,12(r16)
   419cc:	10800054 	ori	r2,r2,1
   419d0:	8080030d 	sth	r2,12(r16)
   419d4:	003fde06 	br	41950 <__alt_data_end+0xfffd5a30>
   419d8:	8080030b 	ldhu	r2,12(r16)
   419dc:	10c0800c 	andi	r3,r2,512
   419e0:	183fdb1e 	bne	r3,zero,41950 <__alt_data_end+0xfffd5a30>
   419e4:	10800094 	ori	r2,r2,2
   419e8:	80c010c4 	addi	r3,r16,67
   419ec:	8080030d 	sth	r2,12(r16)
   419f0:	00800044 	movi	r2,1
   419f4:	80c00015 	stw	r3,0(r16)
   419f8:	80c00415 	stw	r3,16(r16)
   419fc:	80800515 	stw	r2,20(r16)
   41a00:	003fd306 	br	41950 <__alt_data_end+0xfffd5a30>
   41a04:	04810004 	movi	r18,1024
   41a08:	003fc306 	br	41918 <__alt_data_end+0xfffd59f8>
   41a0c:	0027883a 	mov	r19,zero
   41a10:	04810004 	movi	r18,1024
   41a14:	003fc006 	br	41918 <__alt_data_end+0xfffd59f8>

00041a18 <_malloc_r>:
   41a18:	defff504 	addi	sp,sp,-44
   41a1c:	dc800315 	stw	r18,12(sp)
   41a20:	dfc00a15 	stw	ra,40(sp)
   41a24:	df000915 	stw	fp,36(sp)
   41a28:	ddc00815 	stw	r23,32(sp)
   41a2c:	dd800715 	stw	r22,28(sp)
   41a30:	dd400615 	stw	r21,24(sp)
   41a34:	dd000515 	stw	r20,20(sp)
   41a38:	dcc00415 	stw	r19,16(sp)
   41a3c:	dc400215 	stw	r17,8(sp)
   41a40:	dc000115 	stw	r16,4(sp)
   41a44:	288002c4 	addi	r2,r5,11
   41a48:	00c00584 	movi	r3,22
   41a4c:	2025883a 	mov	r18,r4
   41a50:	18807f2e 	bgeu	r3,r2,41c50 <_malloc_r+0x238>
   41a54:	047ffe04 	movi	r17,-8
   41a58:	1462703a 	and	r17,r2,r17
   41a5c:	8800a316 	blt	r17,zero,41cec <_malloc_r+0x2d4>
   41a60:	8940a236 	bltu	r17,r5,41cec <_malloc_r+0x2d4>
   41a64:	004e2dc0 	call	4e2dc <__malloc_lock>
   41a68:	00807dc4 	movi	r2,503
   41a6c:	1441e92e 	bgeu	r2,r17,42214 <_malloc_r+0x7fc>
   41a70:	8804d27a 	srli	r2,r17,9
   41a74:	1000a126 	beq	r2,zero,41cfc <_malloc_r+0x2e4>
   41a78:	00c00104 	movi	r3,4
   41a7c:	18811e36 	bltu	r3,r2,41ef8 <_malloc_r+0x4e0>
   41a80:	8804d1ba 	srli	r2,r17,6
   41a84:	12000e44 	addi	r8,r2,57
   41a88:	11c00e04 	addi	r7,r2,56
   41a8c:	4209883a 	add	r4,r8,r8
   41a90:	04c00174 	movhi	r19,5
   41a94:	2109883a 	add	r4,r4,r4
   41a98:	9cc3c404 	addi	r19,r19,3856
   41a9c:	2109883a 	add	r4,r4,r4
   41aa0:	9909883a 	add	r4,r19,r4
   41aa4:	24000117 	ldw	r16,4(r4)
   41aa8:	213ffe04 	addi	r4,r4,-8
   41aac:	24009726 	beq	r4,r16,41d0c <_malloc_r+0x2f4>
   41ab0:	80800117 	ldw	r2,4(r16)
   41ab4:	01bfff04 	movi	r6,-4
   41ab8:	014003c4 	movi	r5,15
   41abc:	1184703a 	and	r2,r2,r6
   41ac0:	1447c83a 	sub	r3,r2,r17
   41ac4:	28c00716 	blt	r5,r3,41ae4 <_malloc_r+0xcc>
   41ac8:	1800920e 	bge	r3,zero,41d14 <_malloc_r+0x2fc>
   41acc:	84000317 	ldw	r16,12(r16)
   41ad0:	24008e26 	beq	r4,r16,41d0c <_malloc_r+0x2f4>
   41ad4:	80800117 	ldw	r2,4(r16)
   41ad8:	1184703a 	and	r2,r2,r6
   41adc:	1447c83a 	sub	r3,r2,r17
   41ae0:	28fff90e 	bge	r5,r3,41ac8 <__alt_data_end+0xfffd5ba8>
   41ae4:	3809883a 	mov	r4,r7
   41ae8:	01800174 	movhi	r6,5
   41aec:	9c000417 	ldw	r16,16(r19)
   41af0:	3183c404 	addi	r6,r6,3856
   41af4:	32000204 	addi	r8,r6,8
   41af8:	82013426 	beq	r16,r8,41fcc <_malloc_r+0x5b4>
   41afc:	80c00117 	ldw	r3,4(r16)
   41b00:	00bfff04 	movi	r2,-4
   41b04:	188e703a 	and	r7,r3,r2
   41b08:	3c45c83a 	sub	r2,r7,r17
   41b0c:	00c003c4 	movi	r3,15
   41b10:	18811f16 	blt	r3,r2,41f90 <_malloc_r+0x578>
   41b14:	32000515 	stw	r8,20(r6)
   41b18:	32000415 	stw	r8,16(r6)
   41b1c:	10007f0e 	bge	r2,zero,41d1c <_malloc_r+0x304>
   41b20:	00807fc4 	movi	r2,511
   41b24:	11c0fd36 	bltu	r2,r7,41f1c <_malloc_r+0x504>
   41b28:	3806d0fa 	srli	r3,r7,3
   41b2c:	01c00044 	movi	r7,1
   41b30:	30800117 	ldw	r2,4(r6)
   41b34:	19400044 	addi	r5,r3,1
   41b38:	294b883a 	add	r5,r5,r5
   41b3c:	1807d0ba 	srai	r3,r3,2
   41b40:	294b883a 	add	r5,r5,r5
   41b44:	294b883a 	add	r5,r5,r5
   41b48:	298b883a 	add	r5,r5,r6
   41b4c:	38c6983a 	sll	r3,r7,r3
   41b50:	29c00017 	ldw	r7,0(r5)
   41b54:	2a7ffe04 	addi	r9,r5,-8
   41b58:	1886b03a 	or	r3,r3,r2
   41b5c:	82400315 	stw	r9,12(r16)
   41b60:	81c00215 	stw	r7,8(r16)
   41b64:	30c00115 	stw	r3,4(r6)
   41b68:	2c000015 	stw	r16,0(r5)
   41b6c:	3c000315 	stw	r16,12(r7)
   41b70:	2005d0ba 	srai	r2,r4,2
   41b74:	01400044 	movi	r5,1
   41b78:	288a983a 	sll	r5,r5,r2
   41b7c:	19406f36 	bltu	r3,r5,41d3c <_malloc_r+0x324>
   41b80:	28c4703a 	and	r2,r5,r3
   41b84:	10000a1e 	bne	r2,zero,41bb0 <_malloc_r+0x198>
   41b88:	00bfff04 	movi	r2,-4
   41b8c:	294b883a 	add	r5,r5,r5
   41b90:	2088703a 	and	r4,r4,r2
   41b94:	28c4703a 	and	r2,r5,r3
   41b98:	21000104 	addi	r4,r4,4
   41b9c:	1000041e 	bne	r2,zero,41bb0 <_malloc_r+0x198>
   41ba0:	294b883a 	add	r5,r5,r5
   41ba4:	28c4703a 	and	r2,r5,r3
   41ba8:	21000104 	addi	r4,r4,4
   41bac:	103ffc26 	beq	r2,zero,41ba0 <__alt_data_end+0xfffd5c80>
   41bb0:	02bfff04 	movi	r10,-4
   41bb4:	024003c4 	movi	r9,15
   41bb8:	21800044 	addi	r6,r4,1
   41bbc:	318d883a 	add	r6,r6,r6
   41bc0:	318d883a 	add	r6,r6,r6
   41bc4:	318d883a 	add	r6,r6,r6
   41bc8:	998d883a 	add	r6,r19,r6
   41bcc:	333ffe04 	addi	r12,r6,-8
   41bd0:	2017883a 	mov	r11,r4
   41bd4:	31800104 	addi	r6,r6,4
   41bd8:	34000017 	ldw	r16,0(r6)
   41bdc:	31fffd04 	addi	r7,r6,-12
   41be0:	81c0041e 	bne	r16,r7,41bf4 <_malloc_r+0x1dc>
   41be4:	0000fb06 	br	41fd4 <_malloc_r+0x5bc>
   41be8:	1801030e 	bge	r3,zero,41ff8 <_malloc_r+0x5e0>
   41bec:	84000317 	ldw	r16,12(r16)
   41bf0:	81c0f826 	beq	r16,r7,41fd4 <_malloc_r+0x5bc>
   41bf4:	80800117 	ldw	r2,4(r16)
   41bf8:	1284703a 	and	r2,r2,r10
   41bfc:	1447c83a 	sub	r3,r2,r17
   41c00:	48fff90e 	bge	r9,r3,41be8 <__alt_data_end+0xfffd5cc8>
   41c04:	80800317 	ldw	r2,12(r16)
   41c08:	81000217 	ldw	r4,8(r16)
   41c0c:	89400054 	ori	r5,r17,1
   41c10:	81400115 	stw	r5,4(r16)
   41c14:	20800315 	stw	r2,12(r4)
   41c18:	11000215 	stw	r4,8(r2)
   41c1c:	8463883a 	add	r17,r16,r17
   41c20:	9c400515 	stw	r17,20(r19)
   41c24:	9c400415 	stw	r17,16(r19)
   41c28:	18800054 	ori	r2,r3,1
   41c2c:	88800115 	stw	r2,4(r17)
   41c30:	8a000315 	stw	r8,12(r17)
   41c34:	8a000215 	stw	r8,8(r17)
   41c38:	88e3883a 	add	r17,r17,r3
   41c3c:	88c00015 	stw	r3,0(r17)
   41c40:	9009883a 	mov	r4,r18
   41c44:	004e3000 	call	4e300 <__malloc_unlock>
   41c48:	80800204 	addi	r2,r16,8
   41c4c:	00001b06 	br	41cbc <_malloc_r+0x2a4>
   41c50:	04400404 	movi	r17,16
   41c54:	89402536 	bltu	r17,r5,41cec <_malloc_r+0x2d4>
   41c58:	004e2dc0 	call	4e2dc <__malloc_lock>
   41c5c:	00800184 	movi	r2,6
   41c60:	01000084 	movi	r4,2
   41c64:	04c00174 	movhi	r19,5
   41c68:	1085883a 	add	r2,r2,r2
   41c6c:	9cc3c404 	addi	r19,r19,3856
   41c70:	1085883a 	add	r2,r2,r2
   41c74:	9885883a 	add	r2,r19,r2
   41c78:	14000117 	ldw	r16,4(r2)
   41c7c:	10fffe04 	addi	r3,r2,-8
   41c80:	80c0d926 	beq	r16,r3,41fe8 <_malloc_r+0x5d0>
   41c84:	80c00117 	ldw	r3,4(r16)
   41c88:	81000317 	ldw	r4,12(r16)
   41c8c:	00bfff04 	movi	r2,-4
   41c90:	1884703a 	and	r2,r3,r2
   41c94:	81400217 	ldw	r5,8(r16)
   41c98:	8085883a 	add	r2,r16,r2
   41c9c:	10c00117 	ldw	r3,4(r2)
   41ca0:	29000315 	stw	r4,12(r5)
   41ca4:	21400215 	stw	r5,8(r4)
   41ca8:	18c00054 	ori	r3,r3,1
   41cac:	10c00115 	stw	r3,4(r2)
   41cb0:	9009883a 	mov	r4,r18
   41cb4:	004e3000 	call	4e300 <__malloc_unlock>
   41cb8:	80800204 	addi	r2,r16,8
   41cbc:	dfc00a17 	ldw	ra,40(sp)
   41cc0:	df000917 	ldw	fp,36(sp)
   41cc4:	ddc00817 	ldw	r23,32(sp)
   41cc8:	dd800717 	ldw	r22,28(sp)
   41ccc:	dd400617 	ldw	r21,24(sp)
   41cd0:	dd000517 	ldw	r20,20(sp)
   41cd4:	dcc00417 	ldw	r19,16(sp)
   41cd8:	dc800317 	ldw	r18,12(sp)
   41cdc:	dc400217 	ldw	r17,8(sp)
   41ce0:	dc000117 	ldw	r16,4(sp)
   41ce4:	dec00b04 	addi	sp,sp,44
   41ce8:	f800283a 	ret
   41cec:	00800304 	movi	r2,12
   41cf0:	90800015 	stw	r2,0(r18)
   41cf4:	0005883a 	mov	r2,zero
   41cf8:	003ff006 	br	41cbc <__alt_data_end+0xfffd5d9c>
   41cfc:	01002004 	movi	r4,128
   41d00:	02001004 	movi	r8,64
   41d04:	01c00fc4 	movi	r7,63
   41d08:	003f6106 	br	41a90 <__alt_data_end+0xfffd5b70>
   41d0c:	4009883a 	mov	r4,r8
   41d10:	003f7506 	br	41ae8 <__alt_data_end+0xfffd5bc8>
   41d14:	81000317 	ldw	r4,12(r16)
   41d18:	003fde06 	br	41c94 <__alt_data_end+0xfffd5d74>
   41d1c:	81c5883a 	add	r2,r16,r7
   41d20:	11400117 	ldw	r5,4(r2)
   41d24:	9009883a 	mov	r4,r18
   41d28:	29400054 	ori	r5,r5,1
   41d2c:	11400115 	stw	r5,4(r2)
   41d30:	004e3000 	call	4e300 <__malloc_unlock>
   41d34:	80800204 	addi	r2,r16,8
   41d38:	003fe006 	br	41cbc <__alt_data_end+0xfffd5d9c>
   41d3c:	9c000217 	ldw	r16,8(r19)
   41d40:	00bfff04 	movi	r2,-4
   41d44:	85800117 	ldw	r22,4(r16)
   41d48:	b0ac703a 	and	r22,r22,r2
   41d4c:	b4400336 	bltu	r22,r17,41d5c <_malloc_r+0x344>
   41d50:	b445c83a 	sub	r2,r22,r17
   41d54:	00c003c4 	movi	r3,15
   41d58:	18805d16 	blt	r3,r2,41ed0 <_malloc_r+0x4b8>
   41d5c:	05c00174 	movhi	r23,5
   41d60:	00800174 	movhi	r2,5
   41d64:	10904a04 	addi	r2,r2,16680
   41d68:	bdc97304 	addi	r23,r23,9676
   41d6c:	15400017 	ldw	r21,0(r2)
   41d70:	b8c00017 	ldw	r3,0(r23)
   41d74:	00bfffc4 	movi	r2,-1
   41d78:	858d883a 	add	r6,r16,r22
   41d7c:	8d6b883a 	add	r21,r17,r21
   41d80:	1880ea26 	beq	r3,r2,4212c <_malloc_r+0x714>
   41d84:	ad4403c4 	addi	r21,r21,4111
   41d88:	00bc0004 	movi	r2,-4096
   41d8c:	a8aa703a 	and	r21,r21,r2
   41d90:	a80b883a 	mov	r5,r21
   41d94:	9009883a 	mov	r4,r18
   41d98:	d9800015 	stw	r6,0(sp)
   41d9c:	00426f80 	call	426f8 <_sbrk_r>
   41da0:	1029883a 	mov	r20,r2
   41da4:	00bfffc4 	movi	r2,-1
   41da8:	d9800017 	ldw	r6,0(sp)
   41dac:	a080e826 	beq	r20,r2,42150 <_malloc_r+0x738>
   41db0:	a180a636 	bltu	r20,r6,4204c <_malloc_r+0x634>
   41db4:	07000174 	movhi	fp,5
   41db8:	e7105504 	addi	fp,fp,16724
   41dbc:	e0800017 	ldw	r2,0(fp)
   41dc0:	a887883a 	add	r3,r21,r2
   41dc4:	e0c00015 	stw	r3,0(fp)
   41dc8:	3500e626 	beq	r6,r20,42164 <_malloc_r+0x74c>
   41dcc:	b9000017 	ldw	r4,0(r23)
   41dd0:	00bfffc4 	movi	r2,-1
   41dd4:	2080ee26 	beq	r4,r2,42190 <_malloc_r+0x778>
   41dd8:	a185c83a 	sub	r2,r20,r6
   41ddc:	10c5883a 	add	r2,r2,r3
   41de0:	e0800015 	stw	r2,0(fp)
   41de4:	a0c001cc 	andi	r3,r20,7
   41de8:	1800bc26 	beq	r3,zero,420dc <_malloc_r+0x6c4>
   41dec:	a0e9c83a 	sub	r20,r20,r3
   41df0:	00840204 	movi	r2,4104
   41df4:	a5000204 	addi	r20,r20,8
   41df8:	10c7c83a 	sub	r3,r2,r3
   41dfc:	a545883a 	add	r2,r20,r21
   41e00:	1083ffcc 	andi	r2,r2,4095
   41e04:	18abc83a 	sub	r21,r3,r2
   41e08:	a80b883a 	mov	r5,r21
   41e0c:	9009883a 	mov	r4,r18
   41e10:	00426f80 	call	426f8 <_sbrk_r>
   41e14:	00ffffc4 	movi	r3,-1
   41e18:	10c0e126 	beq	r2,r3,421a0 <_malloc_r+0x788>
   41e1c:	1505c83a 	sub	r2,r2,r20
   41e20:	1545883a 	add	r2,r2,r21
   41e24:	10800054 	ori	r2,r2,1
   41e28:	e0c00017 	ldw	r3,0(fp)
   41e2c:	9d000215 	stw	r20,8(r19)
   41e30:	a0800115 	stw	r2,4(r20)
   41e34:	a8c7883a 	add	r3,r21,r3
   41e38:	e0c00015 	stw	r3,0(fp)
   41e3c:	84c00e26 	beq	r16,r19,41e78 <_malloc_r+0x460>
   41e40:	018003c4 	movi	r6,15
   41e44:	3580a72e 	bgeu	r6,r22,420e4 <_malloc_r+0x6cc>
   41e48:	81400117 	ldw	r5,4(r16)
   41e4c:	013ffe04 	movi	r4,-8
   41e50:	b0bffd04 	addi	r2,r22,-12
   41e54:	1104703a 	and	r2,r2,r4
   41e58:	2900004c 	andi	r4,r5,1
   41e5c:	2088b03a 	or	r4,r4,r2
   41e60:	81000115 	stw	r4,4(r16)
   41e64:	01400144 	movi	r5,5
   41e68:	8089883a 	add	r4,r16,r2
   41e6c:	21400115 	stw	r5,4(r4)
   41e70:	21400215 	stw	r5,8(r4)
   41e74:	3080cd36 	bltu	r6,r2,421ac <_malloc_r+0x794>
   41e78:	00800174 	movhi	r2,5
   41e7c:	10904904 	addi	r2,r2,16676
   41e80:	11000017 	ldw	r4,0(r2)
   41e84:	20c0012e 	bgeu	r4,r3,41e8c <_malloc_r+0x474>
   41e88:	10c00015 	stw	r3,0(r2)
   41e8c:	00800174 	movhi	r2,5
   41e90:	10904804 	addi	r2,r2,16672
   41e94:	11000017 	ldw	r4,0(r2)
   41e98:	9c000217 	ldw	r16,8(r19)
   41e9c:	20c0012e 	bgeu	r4,r3,41ea4 <_malloc_r+0x48c>
   41ea0:	10c00015 	stw	r3,0(r2)
   41ea4:	80c00117 	ldw	r3,4(r16)
   41ea8:	00bfff04 	movi	r2,-4
   41eac:	1886703a 	and	r3,r3,r2
   41eb0:	1c45c83a 	sub	r2,r3,r17
   41eb4:	1c400236 	bltu	r3,r17,41ec0 <_malloc_r+0x4a8>
   41eb8:	00c003c4 	movi	r3,15
   41ebc:	18800416 	blt	r3,r2,41ed0 <_malloc_r+0x4b8>
   41ec0:	9009883a 	mov	r4,r18
   41ec4:	004e3000 	call	4e300 <__malloc_unlock>
   41ec8:	0005883a 	mov	r2,zero
   41ecc:	003f7b06 	br	41cbc <__alt_data_end+0xfffd5d9c>
   41ed0:	88c00054 	ori	r3,r17,1
   41ed4:	80c00115 	stw	r3,4(r16)
   41ed8:	8463883a 	add	r17,r16,r17
   41edc:	10800054 	ori	r2,r2,1
   41ee0:	9c400215 	stw	r17,8(r19)
   41ee4:	88800115 	stw	r2,4(r17)
   41ee8:	9009883a 	mov	r4,r18
   41eec:	004e3000 	call	4e300 <__malloc_unlock>
   41ef0:	80800204 	addi	r2,r16,8
   41ef4:	003f7106 	br	41cbc <__alt_data_end+0xfffd5d9c>
   41ef8:	00c00504 	movi	r3,20
   41efc:	18804a2e 	bgeu	r3,r2,42028 <_malloc_r+0x610>
   41f00:	00c01504 	movi	r3,84
   41f04:	18806e36 	bltu	r3,r2,420c0 <_malloc_r+0x6a8>
   41f08:	8804d33a 	srli	r2,r17,12
   41f0c:	12001bc4 	addi	r8,r2,111
   41f10:	11c01b84 	addi	r7,r2,110
   41f14:	4209883a 	add	r4,r8,r8
   41f18:	003edd06 	br	41a90 <__alt_data_end+0xfffd5b70>
   41f1c:	3804d27a 	srli	r2,r7,9
   41f20:	00c00104 	movi	r3,4
   41f24:	1880442e 	bgeu	r3,r2,42038 <_malloc_r+0x620>
   41f28:	00c00504 	movi	r3,20
   41f2c:	18808136 	bltu	r3,r2,42134 <_malloc_r+0x71c>
   41f30:	11401704 	addi	r5,r2,92
   41f34:	10c016c4 	addi	r3,r2,91
   41f38:	294b883a 	add	r5,r5,r5
   41f3c:	294b883a 	add	r5,r5,r5
   41f40:	294b883a 	add	r5,r5,r5
   41f44:	994b883a 	add	r5,r19,r5
   41f48:	28800017 	ldw	r2,0(r5)
   41f4c:	01800174 	movhi	r6,5
   41f50:	297ffe04 	addi	r5,r5,-8
   41f54:	3183c404 	addi	r6,r6,3856
   41f58:	28806526 	beq	r5,r2,420f0 <_malloc_r+0x6d8>
   41f5c:	01bfff04 	movi	r6,-4
   41f60:	10c00117 	ldw	r3,4(r2)
   41f64:	1986703a 	and	r3,r3,r6
   41f68:	38c0022e 	bgeu	r7,r3,41f74 <_malloc_r+0x55c>
   41f6c:	10800217 	ldw	r2,8(r2)
   41f70:	28bffb1e 	bne	r5,r2,41f60 <__alt_data_end+0xfffd6040>
   41f74:	11400317 	ldw	r5,12(r2)
   41f78:	98c00117 	ldw	r3,4(r19)
   41f7c:	81400315 	stw	r5,12(r16)
   41f80:	80800215 	stw	r2,8(r16)
   41f84:	2c000215 	stw	r16,8(r5)
   41f88:	14000315 	stw	r16,12(r2)
   41f8c:	003ef806 	br	41b70 <__alt_data_end+0xfffd5c50>
   41f90:	88c00054 	ori	r3,r17,1
   41f94:	80c00115 	stw	r3,4(r16)
   41f98:	8463883a 	add	r17,r16,r17
   41f9c:	34400515 	stw	r17,20(r6)
   41fa0:	34400415 	stw	r17,16(r6)
   41fa4:	10c00054 	ori	r3,r2,1
   41fa8:	8a000315 	stw	r8,12(r17)
   41fac:	8a000215 	stw	r8,8(r17)
   41fb0:	88c00115 	stw	r3,4(r17)
   41fb4:	88a3883a 	add	r17,r17,r2
   41fb8:	88800015 	stw	r2,0(r17)
   41fbc:	9009883a 	mov	r4,r18
   41fc0:	004e3000 	call	4e300 <__malloc_unlock>
   41fc4:	80800204 	addi	r2,r16,8
   41fc8:	003f3c06 	br	41cbc <__alt_data_end+0xfffd5d9c>
   41fcc:	30c00117 	ldw	r3,4(r6)
   41fd0:	003ee706 	br	41b70 <__alt_data_end+0xfffd5c50>
   41fd4:	5ac00044 	addi	r11,r11,1
   41fd8:	588000cc 	andi	r2,r11,3
   41fdc:	31800204 	addi	r6,r6,8
   41fe0:	103efd1e 	bne	r2,zero,41bd8 <__alt_data_end+0xfffd5cb8>
   41fe4:	00002406 	br	42078 <_malloc_r+0x660>
   41fe8:	14000317 	ldw	r16,12(r2)
   41fec:	143f251e 	bne	r2,r16,41c84 <__alt_data_end+0xfffd5d64>
   41ff0:	21000084 	addi	r4,r4,2
   41ff4:	003ebc06 	br	41ae8 <__alt_data_end+0xfffd5bc8>
   41ff8:	8085883a 	add	r2,r16,r2
   41ffc:	10c00117 	ldw	r3,4(r2)
   42000:	81000317 	ldw	r4,12(r16)
   42004:	81400217 	ldw	r5,8(r16)
   42008:	18c00054 	ori	r3,r3,1
   4200c:	10c00115 	stw	r3,4(r2)
   42010:	29000315 	stw	r4,12(r5)
   42014:	21400215 	stw	r5,8(r4)
   42018:	9009883a 	mov	r4,r18
   4201c:	004e3000 	call	4e300 <__malloc_unlock>
   42020:	80800204 	addi	r2,r16,8
   42024:	003f2506 	br	41cbc <__alt_data_end+0xfffd5d9c>
   42028:	12001704 	addi	r8,r2,92
   4202c:	11c016c4 	addi	r7,r2,91
   42030:	4209883a 	add	r4,r8,r8
   42034:	003e9606 	br	41a90 <__alt_data_end+0xfffd5b70>
   42038:	3804d1ba 	srli	r2,r7,6
   4203c:	11400e44 	addi	r5,r2,57
   42040:	10c00e04 	addi	r3,r2,56
   42044:	294b883a 	add	r5,r5,r5
   42048:	003fbc06 	br	41f3c <__alt_data_end+0xfffd601c>
   4204c:	84ff5926 	beq	r16,r19,41db4 <__alt_data_end+0xfffd5e94>
   42050:	00800174 	movhi	r2,5
   42054:	1083c404 	addi	r2,r2,3856
   42058:	14000217 	ldw	r16,8(r2)
   4205c:	00bfff04 	movi	r2,-4
   42060:	80c00117 	ldw	r3,4(r16)
   42064:	1886703a 	and	r3,r3,r2
   42068:	003f9106 	br	41eb0 <__alt_data_end+0xfffd5f90>
   4206c:	60800217 	ldw	r2,8(r12)
   42070:	213fffc4 	addi	r4,r4,-1
   42074:	1300651e 	bne	r2,r12,4220c <_malloc_r+0x7f4>
   42078:	208000cc 	andi	r2,r4,3
   4207c:	633ffe04 	addi	r12,r12,-8
   42080:	103ffa1e 	bne	r2,zero,4206c <__alt_data_end+0xfffd614c>
   42084:	98800117 	ldw	r2,4(r19)
   42088:	0146303a 	nor	r3,zero,r5
   4208c:	1884703a 	and	r2,r3,r2
   42090:	98800115 	stw	r2,4(r19)
   42094:	294b883a 	add	r5,r5,r5
   42098:	117f2836 	bltu	r2,r5,41d3c <__alt_data_end+0xfffd5e1c>
   4209c:	283f2726 	beq	r5,zero,41d3c <__alt_data_end+0xfffd5e1c>
   420a0:	2886703a 	and	r3,r5,r2
   420a4:	5809883a 	mov	r4,r11
   420a8:	183ec31e 	bne	r3,zero,41bb8 <__alt_data_end+0xfffd5c98>
   420ac:	294b883a 	add	r5,r5,r5
   420b0:	2886703a 	and	r3,r5,r2
   420b4:	21000104 	addi	r4,r4,4
   420b8:	183ffc26 	beq	r3,zero,420ac <__alt_data_end+0xfffd618c>
   420bc:	003ebe06 	br	41bb8 <__alt_data_end+0xfffd5c98>
   420c0:	00c05504 	movi	r3,340
   420c4:	18801236 	bltu	r3,r2,42110 <_malloc_r+0x6f8>
   420c8:	8804d3fa 	srli	r2,r17,15
   420cc:	12001e04 	addi	r8,r2,120
   420d0:	11c01dc4 	addi	r7,r2,119
   420d4:	4209883a 	add	r4,r8,r8
   420d8:	003e6d06 	br	41a90 <__alt_data_end+0xfffd5b70>
   420dc:	00c40004 	movi	r3,4096
   420e0:	003f4606 	br	41dfc <__alt_data_end+0xfffd5edc>
   420e4:	00800044 	movi	r2,1
   420e8:	a0800115 	stw	r2,4(r20)
   420ec:	003f7406 	br	41ec0 <__alt_data_end+0xfffd5fa0>
   420f0:	1805d0ba 	srai	r2,r3,2
   420f4:	01c00044 	movi	r7,1
   420f8:	30c00117 	ldw	r3,4(r6)
   420fc:	388e983a 	sll	r7,r7,r2
   42100:	2805883a 	mov	r2,r5
   42104:	38c6b03a 	or	r3,r7,r3
   42108:	30c00115 	stw	r3,4(r6)
   4210c:	003f9b06 	br	41f7c <__alt_data_end+0xfffd605c>
   42110:	00c15504 	movi	r3,1364
   42114:	18801a36 	bltu	r3,r2,42180 <_malloc_r+0x768>
   42118:	8804d4ba 	srli	r2,r17,18
   4211c:	12001f44 	addi	r8,r2,125
   42120:	11c01f04 	addi	r7,r2,124
   42124:	4209883a 	add	r4,r8,r8
   42128:	003e5906 	br	41a90 <__alt_data_end+0xfffd5b70>
   4212c:	ad400404 	addi	r21,r21,16
   42130:	003f1706 	br	41d90 <__alt_data_end+0xfffd5e70>
   42134:	00c01504 	movi	r3,84
   42138:	18802336 	bltu	r3,r2,421c8 <_malloc_r+0x7b0>
   4213c:	3804d33a 	srli	r2,r7,12
   42140:	11401bc4 	addi	r5,r2,111
   42144:	10c01b84 	addi	r3,r2,110
   42148:	294b883a 	add	r5,r5,r5
   4214c:	003f7b06 	br	41f3c <__alt_data_end+0xfffd601c>
   42150:	9c000217 	ldw	r16,8(r19)
   42154:	00bfff04 	movi	r2,-4
   42158:	80c00117 	ldw	r3,4(r16)
   4215c:	1886703a 	and	r3,r3,r2
   42160:	003f5306 	br	41eb0 <__alt_data_end+0xfffd5f90>
   42164:	3083ffcc 	andi	r2,r6,4095
   42168:	103f181e 	bne	r2,zero,41dcc <__alt_data_end+0xfffd5eac>
   4216c:	99000217 	ldw	r4,8(r19)
   42170:	b545883a 	add	r2,r22,r21
   42174:	10800054 	ori	r2,r2,1
   42178:	20800115 	stw	r2,4(r4)
   4217c:	003f3e06 	br	41e78 <__alt_data_end+0xfffd5f58>
   42180:	01003f84 	movi	r4,254
   42184:	02001fc4 	movi	r8,127
   42188:	01c01f84 	movi	r7,126
   4218c:	003e4006 	br	41a90 <__alt_data_end+0xfffd5b70>
   42190:	00800174 	movhi	r2,5
   42194:	10897304 	addi	r2,r2,9676
   42198:	15000015 	stw	r20,0(r2)
   4219c:	003f1106 	br	41de4 <__alt_data_end+0xfffd5ec4>
   421a0:	00800044 	movi	r2,1
   421a4:	002b883a 	mov	r21,zero
   421a8:	003f1f06 	br	41e28 <__alt_data_end+0xfffd5f08>
   421ac:	81400204 	addi	r5,r16,8
   421b0:	9009883a 	mov	r4,r18
   421b4:	0040df00 	call	40df0 <_free_r>
   421b8:	00800174 	movhi	r2,5
   421bc:	10905504 	addi	r2,r2,16724
   421c0:	10c00017 	ldw	r3,0(r2)
   421c4:	003f2c06 	br	41e78 <__alt_data_end+0xfffd5f58>
   421c8:	00c05504 	movi	r3,340
   421cc:	18800536 	bltu	r3,r2,421e4 <_malloc_r+0x7cc>
   421d0:	3804d3fa 	srli	r2,r7,15
   421d4:	11401e04 	addi	r5,r2,120
   421d8:	10c01dc4 	addi	r3,r2,119
   421dc:	294b883a 	add	r5,r5,r5
   421e0:	003f5606 	br	41f3c <__alt_data_end+0xfffd601c>
   421e4:	00c15504 	movi	r3,1364
   421e8:	18800536 	bltu	r3,r2,42200 <_malloc_r+0x7e8>
   421ec:	3804d4ba 	srli	r2,r7,18
   421f0:	11401f44 	addi	r5,r2,125
   421f4:	10c01f04 	addi	r3,r2,124
   421f8:	294b883a 	add	r5,r5,r5
   421fc:	003f4f06 	br	41f3c <__alt_data_end+0xfffd601c>
   42200:	01403f84 	movi	r5,254
   42204:	00c01f84 	movi	r3,126
   42208:	003f4c06 	br	41f3c <__alt_data_end+0xfffd601c>
   4220c:	98800117 	ldw	r2,4(r19)
   42210:	003fa006 	br	42094 <__alt_data_end+0xfffd6174>
   42214:	8808d0fa 	srli	r4,r17,3
   42218:	20800044 	addi	r2,r4,1
   4221c:	1085883a 	add	r2,r2,r2
   42220:	003e9006 	br	41c64 <__alt_data_end+0xfffd5d44>

00042224 <memset>:
   42224:	20c000cc 	andi	r3,r4,3
   42228:	2005883a 	mov	r2,r4
   4222c:	18004426 	beq	r3,zero,42340 <memset+0x11c>
   42230:	31ffffc4 	addi	r7,r6,-1
   42234:	30004026 	beq	r6,zero,42338 <memset+0x114>
   42238:	2813883a 	mov	r9,r5
   4223c:	200d883a 	mov	r6,r4
   42240:	2007883a 	mov	r3,r4
   42244:	00000406 	br	42258 <memset+0x34>
   42248:	3a3fffc4 	addi	r8,r7,-1
   4224c:	31800044 	addi	r6,r6,1
   42250:	38003926 	beq	r7,zero,42338 <memset+0x114>
   42254:	400f883a 	mov	r7,r8
   42258:	18c00044 	addi	r3,r3,1
   4225c:	32400005 	stb	r9,0(r6)
   42260:	1a0000cc 	andi	r8,r3,3
   42264:	403ff81e 	bne	r8,zero,42248 <__alt_data_end+0xfffd6328>
   42268:	010000c4 	movi	r4,3
   4226c:	21c02d2e 	bgeu	r4,r7,42324 <memset+0x100>
   42270:	29003fcc 	andi	r4,r5,255
   42274:	200c923a 	slli	r6,r4,8
   42278:	3108b03a 	or	r4,r6,r4
   4227c:	200c943a 	slli	r6,r4,16
   42280:	218cb03a 	or	r6,r4,r6
   42284:	010003c4 	movi	r4,15
   42288:	21c0182e 	bgeu	r4,r7,422ec <memset+0xc8>
   4228c:	3b3ffc04 	addi	r12,r7,-16
   42290:	6018d13a 	srli	r12,r12,4
   42294:	1a000104 	addi	r8,r3,4
   42298:	1ac00204 	addi	r11,r3,8
   4229c:	6008913a 	slli	r4,r12,4
   422a0:	1a800304 	addi	r10,r3,12
   422a4:	1813883a 	mov	r9,r3
   422a8:	21000504 	addi	r4,r4,20
   422ac:	1909883a 	add	r4,r3,r4
   422b0:	49800015 	stw	r6,0(r9)
   422b4:	41800015 	stw	r6,0(r8)
   422b8:	59800015 	stw	r6,0(r11)
   422bc:	51800015 	stw	r6,0(r10)
   422c0:	42000404 	addi	r8,r8,16
   422c4:	4a400404 	addi	r9,r9,16
   422c8:	5ac00404 	addi	r11,r11,16
   422cc:	52800404 	addi	r10,r10,16
   422d0:	413ff71e 	bne	r8,r4,422b0 <__alt_data_end+0xfffd6390>
   422d4:	63000044 	addi	r12,r12,1
   422d8:	6018913a 	slli	r12,r12,4
   422dc:	39c003cc 	andi	r7,r7,15
   422e0:	010000c4 	movi	r4,3
   422e4:	1b07883a 	add	r3,r3,r12
   422e8:	21c00e2e 	bgeu	r4,r7,42324 <memset+0x100>
   422ec:	1813883a 	mov	r9,r3
   422f0:	3811883a 	mov	r8,r7
   422f4:	010000c4 	movi	r4,3
   422f8:	49800015 	stw	r6,0(r9)
   422fc:	423fff04 	addi	r8,r8,-4
   42300:	4a400104 	addi	r9,r9,4
   42304:	223ffc36 	bltu	r4,r8,422f8 <__alt_data_end+0xfffd63d8>
   42308:	393fff04 	addi	r4,r7,-4
   4230c:	2008d0ba 	srli	r4,r4,2
   42310:	39c000cc 	andi	r7,r7,3
   42314:	21000044 	addi	r4,r4,1
   42318:	2109883a 	add	r4,r4,r4
   4231c:	2109883a 	add	r4,r4,r4
   42320:	1907883a 	add	r3,r3,r4
   42324:	38000526 	beq	r7,zero,4233c <memset+0x118>
   42328:	19cf883a 	add	r7,r3,r7
   4232c:	19400005 	stb	r5,0(r3)
   42330:	18c00044 	addi	r3,r3,1
   42334:	38fffd1e 	bne	r7,r3,4232c <__alt_data_end+0xfffd640c>
   42338:	f800283a 	ret
   4233c:	f800283a 	ret
   42340:	2007883a 	mov	r3,r4
   42344:	300f883a 	mov	r7,r6
   42348:	003fc706 	br	42268 <__alt_data_end+0xfffd6348>

0004234c <_open_r>:
   4234c:	defffd04 	addi	sp,sp,-12
   42350:	2805883a 	mov	r2,r5
   42354:	dc000015 	stw	r16,0(sp)
   42358:	04000174 	movhi	r16,5
   4235c:	dc400115 	stw	r17,4(sp)
   42360:	300b883a 	mov	r5,r6
   42364:	84104704 	addi	r16,r16,16668
   42368:	2023883a 	mov	r17,r4
   4236c:	380d883a 	mov	r6,r7
   42370:	1009883a 	mov	r4,r2
   42374:	dfc00215 	stw	ra,8(sp)
   42378:	80000015 	stw	zero,0(r16)
   4237c:	004e44c0 	call	4e44c <open>
   42380:	00ffffc4 	movi	r3,-1
   42384:	10c00526 	beq	r2,r3,4239c <_open_r+0x50>
   42388:	dfc00217 	ldw	ra,8(sp)
   4238c:	dc400117 	ldw	r17,4(sp)
   42390:	dc000017 	ldw	r16,0(sp)
   42394:	dec00304 	addi	sp,sp,12
   42398:	f800283a 	ret
   4239c:	80c00017 	ldw	r3,0(r16)
   423a0:	183ff926 	beq	r3,zero,42388 <__alt_data_end+0xfffd6468>
   423a4:	88c00015 	stw	r3,0(r17)
   423a8:	003ff706 	br	42388 <__alt_data_end+0xfffd6468>

000423ac <_puts_r>:
   423ac:	defff604 	addi	sp,sp,-40
   423b0:	dc000715 	stw	r16,28(sp)
   423b4:	2021883a 	mov	r16,r4
   423b8:	2809883a 	mov	r4,r5
   423bc:	dc400815 	stw	r17,32(sp)
   423c0:	dfc00915 	stw	ra,36(sp)
   423c4:	2823883a 	mov	r17,r5
   423c8:	00428880 	call	42888 <strlen>
   423cc:	10c00044 	addi	r3,r2,1
   423d0:	d8800115 	stw	r2,4(sp)
   423d4:	00800174 	movhi	r2,5
   423d8:	1081f804 	addi	r2,r2,2016
   423dc:	d8800215 	stw	r2,8(sp)
   423e0:	00800044 	movi	r2,1
   423e4:	d8800315 	stw	r2,12(sp)
   423e8:	00800084 	movi	r2,2
   423ec:	dc400015 	stw	r17,0(sp)
   423f0:	d8c00615 	stw	r3,24(sp)
   423f4:	dec00415 	stw	sp,16(sp)
   423f8:	d8800515 	stw	r2,20(sp)
   423fc:	80000226 	beq	r16,zero,42408 <_puts_r+0x5c>
   42400:	80800e17 	ldw	r2,56(r16)
   42404:	10001426 	beq	r2,zero,42458 <_puts_r+0xac>
   42408:	81400217 	ldw	r5,8(r16)
   4240c:	2880030b 	ldhu	r2,12(r5)
   42410:	10c8000c 	andi	r3,r2,8192
   42414:	1800061e 	bne	r3,zero,42430 <_puts_r+0x84>
   42418:	29001917 	ldw	r4,100(r5)
   4241c:	00f7ffc4 	movi	r3,-8193
   42420:	10880014 	ori	r2,r2,8192
   42424:	20c6703a 	and	r3,r4,r3
   42428:	2880030d 	sth	r2,12(r5)
   4242c:	28c01915 	stw	r3,100(r5)
   42430:	d9800404 	addi	r6,sp,16
   42434:	8009883a 	mov	r4,r16
   42438:	00468380 	call	46838 <__sfvwrite_r>
   4243c:	1000091e 	bne	r2,zero,42464 <_puts_r+0xb8>
   42440:	00800284 	movi	r2,10
   42444:	dfc00917 	ldw	ra,36(sp)
   42448:	dc400817 	ldw	r17,32(sp)
   4244c:	dc000717 	ldw	r16,28(sp)
   42450:	dec00a04 	addi	sp,sp,40
   42454:	f800283a 	ret
   42458:	8009883a 	mov	r4,r16
   4245c:	0040b240 	call	40b24 <__sinit>
   42460:	003fe906 	br	42408 <__alt_data_end+0xfffd64e8>
   42464:	00bfffc4 	movi	r2,-1
   42468:	003ff606 	br	42444 <__alt_data_end+0xfffd6524>

0004246c <puts>:
   4246c:	00800174 	movhi	r2,5
   42470:	10897204 	addi	r2,r2,9672
   42474:	200b883a 	mov	r5,r4
   42478:	11000017 	ldw	r4,0(r2)
   4247c:	00423ac1 	jmpi	423ac <_puts_r>

00042480 <lflush>:
   42480:	2080030b 	ldhu	r2,12(r4)
   42484:	00c00244 	movi	r3,9
   42488:	1080024c 	andi	r2,r2,9
   4248c:	10c00226 	beq	r2,r3,42498 <lflush+0x18>
   42490:	0005883a 	mov	r2,zero
   42494:	f800283a 	ret
   42498:	00407941 	jmpi	40794 <fflush>

0004249c <__srefill_r>:
   4249c:	defffc04 	addi	sp,sp,-16
   424a0:	dc400115 	stw	r17,4(sp)
   424a4:	dc000015 	stw	r16,0(sp)
   424a8:	dfc00315 	stw	ra,12(sp)
   424ac:	dc800215 	stw	r18,8(sp)
   424b0:	2023883a 	mov	r17,r4
   424b4:	2821883a 	mov	r16,r5
   424b8:	20000226 	beq	r4,zero,424c4 <__srefill_r+0x28>
   424bc:	20800e17 	ldw	r2,56(r4)
   424c0:	10003c26 	beq	r2,zero,425b4 <__srefill_r+0x118>
   424c4:	80c0030b 	ldhu	r3,12(r16)
   424c8:	1908000c 	andi	r4,r3,8192
   424cc:	1805883a 	mov	r2,r3
   424d0:	2000071e 	bne	r4,zero,424f0 <__srefill_r+0x54>
   424d4:	81001917 	ldw	r4,100(r16)
   424d8:	18880014 	ori	r2,r3,8192
   424dc:	00f7ffc4 	movi	r3,-8193
   424e0:	20c8703a 	and	r4,r4,r3
   424e4:	8080030d 	sth	r2,12(r16)
   424e8:	1007883a 	mov	r3,r2
   424ec:	81001915 	stw	r4,100(r16)
   424f0:	80000115 	stw	zero,4(r16)
   424f4:	1100080c 	andi	r4,r2,32
   424f8:	2000571e 	bne	r4,zero,42658 <__srefill_r+0x1bc>
   424fc:	1100010c 	andi	r4,r2,4
   42500:	20001f26 	beq	r4,zero,42580 <__srefill_r+0xe4>
   42504:	81400c17 	ldw	r5,48(r16)
   42508:	28000826 	beq	r5,zero,4252c <__srefill_r+0x90>
   4250c:	80801004 	addi	r2,r16,64
   42510:	28800226 	beq	r5,r2,4251c <__srefill_r+0x80>
   42514:	8809883a 	mov	r4,r17
   42518:	0040df00 	call	40df0 <_free_r>
   4251c:	80800f17 	ldw	r2,60(r16)
   42520:	80000c15 	stw	zero,48(r16)
   42524:	80800115 	stw	r2,4(r16)
   42528:	1000391e 	bne	r2,zero,42610 <__srefill_r+0x174>
   4252c:	80800417 	ldw	r2,16(r16)
   42530:	10004b26 	beq	r2,zero,42660 <__srefill_r+0x1c4>
   42534:	8480030b 	ldhu	r18,12(r16)
   42538:	908000cc 	andi	r2,r18,3
   4253c:	10001f1e 	bne	r2,zero,425bc <__srefill_r+0x120>
   42540:	81800417 	ldw	r6,16(r16)
   42544:	80800817 	ldw	r2,32(r16)
   42548:	81c00517 	ldw	r7,20(r16)
   4254c:	81400717 	ldw	r5,28(r16)
   42550:	81800015 	stw	r6,0(r16)
   42554:	8809883a 	mov	r4,r17
   42558:	103ee83a 	callr	r2
   4255c:	80800115 	stw	r2,4(r16)
   42560:	00800e0e 	bge	zero,r2,4259c <__srefill_r+0x100>
   42564:	0005883a 	mov	r2,zero
   42568:	dfc00317 	ldw	ra,12(sp)
   4256c:	dc800217 	ldw	r18,8(sp)
   42570:	dc400117 	ldw	r17,4(sp)
   42574:	dc000017 	ldw	r16,0(sp)
   42578:	dec00404 	addi	sp,sp,16
   4257c:	f800283a 	ret
   42580:	1100040c 	andi	r4,r2,16
   42584:	20003026 	beq	r4,zero,42648 <__srefill_r+0x1ac>
   42588:	1080020c 	andi	r2,r2,8
   4258c:	1000241e 	bne	r2,zero,42620 <__srefill_r+0x184>
   42590:	18c00114 	ori	r3,r3,4
   42594:	80c0030d 	sth	r3,12(r16)
   42598:	003fe406 	br	4252c <__alt_data_end+0xfffd660c>
   4259c:	80c0030b 	ldhu	r3,12(r16)
   425a0:	1000161e 	bne	r2,zero,425fc <__srefill_r+0x160>
   425a4:	18c00814 	ori	r3,r3,32
   425a8:	00bfffc4 	movi	r2,-1
   425ac:	80c0030d 	sth	r3,12(r16)
   425b0:	003fed06 	br	42568 <__alt_data_end+0xfffd6648>
   425b4:	0040b240 	call	40b24 <__sinit>
   425b8:	003fc206 	br	424c4 <__alt_data_end+0xfffd65a4>
   425bc:	00800174 	movhi	r2,5
   425c0:	10897104 	addi	r2,r2,9668
   425c4:	11000017 	ldw	r4,0(r2)
   425c8:	01400134 	movhi	r5,4
   425cc:	00800044 	movi	r2,1
   425d0:	29492004 	addi	r5,r5,9344
   425d4:	8080030d 	sth	r2,12(r16)
   425d8:	00415dc0 	call	415dc <_fwalk>
   425dc:	00800244 	movi	r2,9
   425e0:	8480030d 	sth	r18,12(r16)
   425e4:	9480024c 	andi	r18,r18,9
   425e8:	90bfd51e 	bne	r18,r2,42540 <__alt_data_end+0xfffd6620>
   425ec:	800b883a 	mov	r5,r16
   425f0:	8809883a 	mov	r4,r17
   425f4:	004051c0 	call	4051c <__sflush_r>
   425f8:	003fd106 	br	42540 <__alt_data_end+0xfffd6620>
   425fc:	18c01014 	ori	r3,r3,64
   42600:	80000115 	stw	zero,4(r16)
   42604:	00bfffc4 	movi	r2,-1
   42608:	80c0030d 	sth	r3,12(r16)
   4260c:	003fd606 	br	42568 <__alt_data_end+0xfffd6648>
   42610:	80c00e17 	ldw	r3,56(r16)
   42614:	0005883a 	mov	r2,zero
   42618:	80c00015 	stw	r3,0(r16)
   4261c:	003fd206 	br	42568 <__alt_data_end+0xfffd6648>
   42620:	800b883a 	mov	r5,r16
   42624:	8809883a 	mov	r4,r17
   42628:	00407380 	call	40738 <_fflush_r>
   4262c:	10000a1e 	bne	r2,zero,42658 <__srefill_r+0x1bc>
   42630:	8080030b 	ldhu	r2,12(r16)
   42634:	00fffdc4 	movi	r3,-9
   42638:	80000215 	stw	zero,8(r16)
   4263c:	1886703a 	and	r3,r3,r2
   42640:	80000615 	stw	zero,24(r16)
   42644:	003fd206 	br	42590 <__alt_data_end+0xfffd6670>
   42648:	00800244 	movi	r2,9
   4264c:	88800015 	stw	r2,0(r17)
   42650:	18c01014 	ori	r3,r3,64
   42654:	80c0030d 	sth	r3,12(r16)
   42658:	00bfffc4 	movi	r2,-1
   4265c:	003fc206 	br	42568 <__alt_data_end+0xfffd6648>
   42660:	800b883a 	mov	r5,r16
   42664:	8809883a 	mov	r4,r17
   42668:	004185c0 	call	4185c <__smakebuf_r>
   4266c:	003fb106 	br	42534 <__alt_data_end+0xfffd6614>

00042670 <__srget_r>:
   42670:	defffd04 	addi	sp,sp,-12
   42674:	dc400115 	stw	r17,4(sp)
   42678:	dc000015 	stw	r16,0(sp)
   4267c:	dfc00215 	stw	ra,8(sp)
   42680:	2023883a 	mov	r17,r4
   42684:	2821883a 	mov	r16,r5
   42688:	20000226 	beq	r4,zero,42694 <__srget_r+0x24>
   4268c:	20800e17 	ldw	r2,56(r4)
   42690:	10001026 	beq	r2,zero,426d4 <__srget_r+0x64>
   42694:	800b883a 	mov	r5,r16
   42698:	8809883a 	mov	r4,r17
   4269c:	004249c0 	call	4249c <__srefill_r>
   426a0:	10000e1e 	bne	r2,zero,426dc <__srget_r+0x6c>
   426a4:	80c00017 	ldw	r3,0(r16)
   426a8:	80800117 	ldw	r2,4(r16)
   426ac:	19000044 	addi	r4,r3,1
   426b0:	10bfffc4 	addi	r2,r2,-1
   426b4:	80800115 	stw	r2,4(r16)
   426b8:	81000015 	stw	r4,0(r16)
   426bc:	18800003 	ldbu	r2,0(r3)
   426c0:	dfc00217 	ldw	ra,8(sp)
   426c4:	dc400117 	ldw	r17,4(sp)
   426c8:	dc000017 	ldw	r16,0(sp)
   426cc:	dec00304 	addi	sp,sp,12
   426d0:	f800283a 	ret
   426d4:	0040b240 	call	40b24 <__sinit>
   426d8:	003fee06 	br	42694 <__alt_data_end+0xfffd6774>
   426dc:	00bfffc4 	movi	r2,-1
   426e0:	003ff706 	br	426c0 <__alt_data_end+0xfffd67a0>

000426e4 <__srget>:
   426e4:	00800174 	movhi	r2,5
   426e8:	10897204 	addi	r2,r2,9672
   426ec:	200b883a 	mov	r5,r4
   426f0:	11000017 	ldw	r4,0(r2)
   426f4:	00426701 	jmpi	42670 <__srget_r>

000426f8 <_sbrk_r>:
   426f8:	defffd04 	addi	sp,sp,-12
   426fc:	dc000015 	stw	r16,0(sp)
   42700:	04000174 	movhi	r16,5
   42704:	dc400115 	stw	r17,4(sp)
   42708:	84104704 	addi	r16,r16,16668
   4270c:	2023883a 	mov	r17,r4
   42710:	2809883a 	mov	r4,r5
   42714:	dfc00215 	stw	ra,8(sp)
   42718:	80000015 	stw	zero,0(r16)
   4271c:	004e76c0 	call	4e76c <sbrk>
   42720:	00ffffc4 	movi	r3,-1
   42724:	10c00526 	beq	r2,r3,4273c <_sbrk_r+0x44>
   42728:	dfc00217 	ldw	ra,8(sp)
   4272c:	dc400117 	ldw	r17,4(sp)
   42730:	dc000017 	ldw	r16,0(sp)
   42734:	dec00304 	addi	sp,sp,12
   42738:	f800283a 	ret
   4273c:	80c00017 	ldw	r3,0(r16)
   42740:	183ff926 	beq	r3,zero,42728 <__alt_data_end+0xfffd6808>
   42744:	88c00015 	stw	r3,0(r17)
   42748:	003ff706 	br	42728 <__alt_data_end+0xfffd6808>

0004274c <__sread>:
   4274c:	defffe04 	addi	sp,sp,-8
   42750:	dc000015 	stw	r16,0(sp)
   42754:	2821883a 	mov	r16,r5
   42758:	2940038f 	ldh	r5,14(r5)
   4275c:	dfc00115 	stw	ra,4(sp)
   42760:	00482d00 	call	482d0 <_read_r>
   42764:	10000716 	blt	r2,zero,42784 <__sread+0x38>
   42768:	80c01417 	ldw	r3,80(r16)
   4276c:	1887883a 	add	r3,r3,r2
   42770:	80c01415 	stw	r3,80(r16)
   42774:	dfc00117 	ldw	ra,4(sp)
   42778:	dc000017 	ldw	r16,0(sp)
   4277c:	dec00204 	addi	sp,sp,8
   42780:	f800283a 	ret
   42784:	80c0030b 	ldhu	r3,12(r16)
   42788:	18fbffcc 	andi	r3,r3,61439
   4278c:	80c0030d 	sth	r3,12(r16)
   42790:	dfc00117 	ldw	ra,4(sp)
   42794:	dc000017 	ldw	r16,0(sp)
   42798:	dec00204 	addi	sp,sp,8
   4279c:	f800283a 	ret

000427a0 <__seofread>:
   427a0:	0005883a 	mov	r2,zero
   427a4:	f800283a 	ret

000427a8 <__swrite>:
   427a8:	2880030b 	ldhu	r2,12(r5)
   427ac:	defffb04 	addi	sp,sp,-20
   427b0:	dcc00315 	stw	r19,12(sp)
   427b4:	dc800215 	stw	r18,8(sp)
   427b8:	dc400115 	stw	r17,4(sp)
   427bc:	dc000015 	stw	r16,0(sp)
   427c0:	dfc00415 	stw	ra,16(sp)
   427c4:	10c0400c 	andi	r3,r2,256
   427c8:	2821883a 	mov	r16,r5
   427cc:	2023883a 	mov	r17,r4
   427d0:	3025883a 	mov	r18,r6
   427d4:	3827883a 	mov	r19,r7
   427d8:	18000526 	beq	r3,zero,427f0 <__swrite+0x48>
   427dc:	2940038f 	ldh	r5,14(r5)
   427e0:	01c00084 	movi	r7,2
   427e4:	000d883a 	mov	r6,zero
   427e8:	0046e300 	call	46e30 <_lseek_r>
   427ec:	8080030b 	ldhu	r2,12(r16)
   427f0:	8140038f 	ldh	r5,14(r16)
   427f4:	10bbffcc 	andi	r2,r2,61439
   427f8:	980f883a 	mov	r7,r19
   427fc:	900d883a 	mov	r6,r18
   42800:	8809883a 	mov	r4,r17
   42804:	8080030d 	sth	r2,12(r16)
   42808:	dfc00417 	ldw	ra,16(sp)
   4280c:	dcc00317 	ldw	r19,12(sp)
   42810:	dc800217 	ldw	r18,8(sp)
   42814:	dc400117 	ldw	r17,4(sp)
   42818:	dc000017 	ldw	r16,0(sp)
   4281c:	dec00504 	addi	sp,sp,20
   42820:	0044cd41 	jmpi	44cd4 <_write_r>

00042824 <__sseek>:
   42824:	defffe04 	addi	sp,sp,-8
   42828:	dc000015 	stw	r16,0(sp)
   4282c:	2821883a 	mov	r16,r5
   42830:	2940038f 	ldh	r5,14(r5)
   42834:	dfc00115 	stw	ra,4(sp)
   42838:	0046e300 	call	46e30 <_lseek_r>
   4283c:	00ffffc4 	movi	r3,-1
   42840:	10c00826 	beq	r2,r3,42864 <__sseek+0x40>
   42844:	80c0030b 	ldhu	r3,12(r16)
   42848:	80801415 	stw	r2,80(r16)
   4284c:	18c40014 	ori	r3,r3,4096
   42850:	80c0030d 	sth	r3,12(r16)
   42854:	dfc00117 	ldw	ra,4(sp)
   42858:	dc000017 	ldw	r16,0(sp)
   4285c:	dec00204 	addi	sp,sp,8
   42860:	f800283a 	ret
   42864:	80c0030b 	ldhu	r3,12(r16)
   42868:	18fbffcc 	andi	r3,r3,61439
   4286c:	80c0030d 	sth	r3,12(r16)
   42870:	dfc00117 	ldw	ra,4(sp)
   42874:	dc000017 	ldw	r16,0(sp)
   42878:	dec00204 	addi	sp,sp,8
   4287c:	f800283a 	ret

00042880 <__sclose>:
   42880:	2940038f 	ldh	r5,14(r5)
   42884:	0044e881 	jmpi	44e88 <_close_r>

00042888 <strlen>:
   42888:	208000cc 	andi	r2,r4,3
   4288c:	10002026 	beq	r2,zero,42910 <strlen+0x88>
   42890:	20800007 	ldb	r2,0(r4)
   42894:	10002026 	beq	r2,zero,42918 <strlen+0x90>
   42898:	2005883a 	mov	r2,r4
   4289c:	00000206 	br	428a8 <strlen+0x20>
   428a0:	10c00007 	ldb	r3,0(r2)
   428a4:	18001826 	beq	r3,zero,42908 <strlen+0x80>
   428a8:	10800044 	addi	r2,r2,1
   428ac:	10c000cc 	andi	r3,r2,3
   428b0:	183ffb1e 	bne	r3,zero,428a0 <__alt_data_end+0xfffd6980>
   428b4:	10c00017 	ldw	r3,0(r2)
   428b8:	01ffbff4 	movhi	r7,65279
   428bc:	39ffbfc4 	addi	r7,r7,-257
   428c0:	00ca303a 	nor	r5,zero,r3
   428c4:	01a02074 	movhi	r6,32897
   428c8:	19c7883a 	add	r3,r3,r7
   428cc:	31a02004 	addi	r6,r6,-32640
   428d0:	1946703a 	and	r3,r3,r5
   428d4:	1986703a 	and	r3,r3,r6
   428d8:	1800091e 	bne	r3,zero,42900 <strlen+0x78>
   428dc:	10800104 	addi	r2,r2,4
   428e0:	10c00017 	ldw	r3,0(r2)
   428e4:	19cb883a 	add	r5,r3,r7
   428e8:	00c6303a 	nor	r3,zero,r3
   428ec:	28c6703a 	and	r3,r5,r3
   428f0:	1986703a 	and	r3,r3,r6
   428f4:	183ff926 	beq	r3,zero,428dc <__alt_data_end+0xfffd69bc>
   428f8:	00000106 	br	42900 <strlen+0x78>
   428fc:	10800044 	addi	r2,r2,1
   42900:	10c00007 	ldb	r3,0(r2)
   42904:	183ffd1e 	bne	r3,zero,428fc <__alt_data_end+0xfffd69dc>
   42908:	1105c83a 	sub	r2,r2,r4
   4290c:	f800283a 	ret
   42910:	2005883a 	mov	r2,r4
   42914:	003fe706 	br	428b4 <__alt_data_end+0xfffd6994>
   42918:	0005883a 	mov	r2,zero
   4291c:	f800283a 	ret

00042920 <___vfprintf_internal_r>:
   42920:	deffb804 	addi	sp,sp,-288
   42924:	dfc04715 	stw	ra,284(sp)
   42928:	ddc04515 	stw	r23,276(sp)
   4292c:	dd404315 	stw	r21,268(sp)
   42930:	d9002d15 	stw	r4,180(sp)
   42934:	282f883a 	mov	r23,r5
   42938:	302b883a 	mov	r21,r6
   4293c:	d9c02e15 	stw	r7,184(sp)
   42940:	df004615 	stw	fp,280(sp)
   42944:	dd804415 	stw	r22,272(sp)
   42948:	dd004215 	stw	r20,264(sp)
   4294c:	dcc04115 	stw	r19,260(sp)
   42950:	dc804015 	stw	r18,256(sp)
   42954:	dc403f15 	stw	r17,252(sp)
   42958:	dc003e15 	stw	r16,248(sp)
   4295c:	0046e000 	call	46e00 <_localeconv_r>
   42960:	10800017 	ldw	r2,0(r2)
   42964:	1009883a 	mov	r4,r2
   42968:	d8803415 	stw	r2,208(sp)
   4296c:	00428880 	call	42888 <strlen>
   42970:	d8803715 	stw	r2,220(sp)
   42974:	d8802d17 	ldw	r2,180(sp)
   42978:	10000226 	beq	r2,zero,42984 <___vfprintf_internal_r+0x64>
   4297c:	10800e17 	ldw	r2,56(r2)
   42980:	1000fb26 	beq	r2,zero,42d70 <___vfprintf_internal_r+0x450>
   42984:	b880030b 	ldhu	r2,12(r23)
   42988:	10c8000c 	andi	r3,r2,8192
   4298c:	1800061e 	bne	r3,zero,429a8 <___vfprintf_internal_r+0x88>
   42990:	b9001917 	ldw	r4,100(r23)
   42994:	00f7ffc4 	movi	r3,-8193
   42998:	10880014 	ori	r2,r2,8192
   4299c:	20c6703a 	and	r3,r4,r3
   429a0:	b880030d 	sth	r2,12(r23)
   429a4:	b8c01915 	stw	r3,100(r23)
   429a8:	10c0020c 	andi	r3,r2,8
   429ac:	1800c326 	beq	r3,zero,42cbc <___vfprintf_internal_r+0x39c>
   429b0:	b8c00417 	ldw	r3,16(r23)
   429b4:	1800c126 	beq	r3,zero,42cbc <___vfprintf_internal_r+0x39c>
   429b8:	1080068c 	andi	r2,r2,26
   429bc:	00c00284 	movi	r3,10
   429c0:	10c0c626 	beq	r2,r3,42cdc <___vfprintf_internal_r+0x3bc>
   429c4:	d8c00404 	addi	r3,sp,16
   429c8:	05000174 	movhi	r20,5
   429cc:	d9001e04 	addi	r4,sp,120
   429d0:	a5020984 	addi	r20,r20,2086
   429d4:	d8c01e15 	stw	r3,120(sp)
   429d8:	d8002015 	stw	zero,128(sp)
   429dc:	d8001f15 	stw	zero,124(sp)
   429e0:	d8003315 	stw	zero,204(sp)
   429e4:	d8003615 	stw	zero,216(sp)
   429e8:	d8003815 	stw	zero,224(sp)
   429ec:	1811883a 	mov	r8,r3
   429f0:	d8003915 	stw	zero,228(sp)
   429f4:	d8003a15 	stw	zero,232(sp)
   429f8:	d8002f15 	stw	zero,188(sp)
   429fc:	d9002815 	stw	r4,160(sp)
   42a00:	a8800007 	ldb	r2,0(r21)
   42a04:	10028b26 	beq	r2,zero,43434 <___vfprintf_internal_r+0xb14>
   42a08:	00c00944 	movi	r3,37
   42a0c:	a823883a 	mov	r17,r21
   42a10:	10c0021e 	bne	r2,r3,42a1c <___vfprintf_internal_r+0xfc>
   42a14:	00001406 	br	42a68 <___vfprintf_internal_r+0x148>
   42a18:	10c00326 	beq	r2,r3,42a28 <___vfprintf_internal_r+0x108>
   42a1c:	8c400044 	addi	r17,r17,1
   42a20:	88800007 	ldb	r2,0(r17)
   42a24:	103ffc1e 	bne	r2,zero,42a18 <__alt_data_end+0xfffd6af8>
   42a28:	8d61c83a 	sub	r16,r17,r21
   42a2c:	80000e26 	beq	r16,zero,42a68 <___vfprintf_internal_r+0x148>
   42a30:	d8c02017 	ldw	r3,128(sp)
   42a34:	d8801f17 	ldw	r2,124(sp)
   42a38:	45400015 	stw	r21,0(r8)
   42a3c:	1c07883a 	add	r3,r3,r16
   42a40:	10800044 	addi	r2,r2,1
   42a44:	d8c02015 	stw	r3,128(sp)
   42a48:	44000115 	stw	r16,4(r8)
   42a4c:	d8801f15 	stw	r2,124(sp)
   42a50:	00c001c4 	movi	r3,7
   42a54:	1880a916 	blt	r3,r2,42cfc <___vfprintf_internal_r+0x3dc>
   42a58:	42000204 	addi	r8,r8,8
   42a5c:	d9402f17 	ldw	r5,188(sp)
   42a60:	2c0b883a 	add	r5,r5,r16
   42a64:	d9402f15 	stw	r5,188(sp)
   42a68:	88800007 	ldb	r2,0(r17)
   42a6c:	1000aa26 	beq	r2,zero,42d18 <___vfprintf_internal_r+0x3f8>
   42a70:	8d400044 	addi	r21,r17,1
   42a74:	8c400047 	ldb	r17,1(r17)
   42a78:	0021883a 	mov	r16,zero
   42a7c:	00bfffc4 	movi	r2,-1
   42a80:	0025883a 	mov	r18,zero
   42a84:	dc002905 	stb	r16,164(sp)
   42a88:	d8002785 	stb	zero,158(sp)
   42a8c:	d8002b05 	stb	zero,172(sp)
   42a90:	d8802a15 	stw	r2,168(sp)
   42a94:	d8003115 	stw	zero,196(sp)
   42a98:	04c01604 	movi	r19,88
   42a9c:	05800244 	movi	r22,9
   42aa0:	9021883a 	mov	r16,r18
   42aa4:	4039883a 	mov	fp,r8
   42aa8:	ad400044 	addi	r21,r21,1
   42aac:	88bff804 	addi	r2,r17,-32
   42ab0:	98833236 	bltu	r19,r2,4377c <___vfprintf_internal_r+0xe5c>
   42ab4:	100490ba 	slli	r2,r2,2
   42ab8:	00c00134 	movhi	r3,4
   42abc:	18cab304 	addi	r3,r3,10956
   42ac0:	10c5883a 	add	r2,r2,r3
   42ac4:	10800017 	ldw	r2,0(r2)
   42ac8:	1000683a 	jmp	r2
   42acc:	00043674 	movhi	zero,4313
   42ad0:	0004377c 	xorhi	zero,zero,4317
   42ad4:	0004377c 	xorhi	zero,zero,4317
   42ad8:	00043694 	movui	zero,4314
   42adc:	0004377c 	xorhi	zero,zero,4317
   42ae0:	0004377c 	xorhi	zero,zero,4317
   42ae4:	0004377c 	xorhi	zero,zero,4317
   42ae8:	0004377c 	xorhi	zero,zero,4317
   42aec:	0004377c 	xorhi	zero,zero,4317
   42af0:	0004377c 	xorhi	zero,zero,4317
   42af4:	00042d7c 	xorhi	zero,zero,4277
   42af8:	00043584 	movi	zero,4310
   42afc:	0004377c 	xorhi	zero,zero,4317
   42b00:	00042c40 	call	42c4 <__reset-0x3bd3c>
   42b04:	00042da0 	cmpeqi	zero,zero,4278
   42b08:	0004377c 	xorhi	zero,zero,4317
   42b0c:	00042df0 	cmpltui	zero,zero,4279
   42b10:	00042dfc 	xorhi	zero,zero,4279
   42b14:	00042dfc 	xorhi	zero,zero,4279
   42b18:	00042dfc 	xorhi	zero,zero,4279
   42b1c:	00042dfc 	xorhi	zero,zero,4279
   42b20:	00042dfc 	xorhi	zero,zero,4279
   42b24:	00042dfc 	xorhi	zero,zero,4279
   42b28:	00042dfc 	xorhi	zero,zero,4279
   42b2c:	00042dfc 	xorhi	zero,zero,4279
   42b30:	00042dfc 	xorhi	zero,zero,4279
   42b34:	0004377c 	xorhi	zero,zero,4317
   42b38:	0004377c 	xorhi	zero,zero,4317
   42b3c:	0004377c 	xorhi	zero,zero,4317
   42b40:	0004377c 	xorhi	zero,zero,4317
   42b44:	0004377c 	xorhi	zero,zero,4317
   42b48:	0004377c 	xorhi	zero,zero,4317
   42b4c:	0004377c 	xorhi	zero,zero,4317
   42b50:	0004377c 	xorhi	zero,zero,4317
   42b54:	0004377c 	xorhi	zero,zero,4317
   42b58:	0004377c 	xorhi	zero,zero,4317
   42b5c:	00042e38 	rdprs	zero,zero,4280
   42b60:	00042f00 	call	42f0 <__reset-0x3bd10>
   42b64:	0004377c 	xorhi	zero,zero,4317
   42b68:	00042f00 	call	42f0 <__reset-0x3bd10>
   42b6c:	0004377c 	xorhi	zero,zero,4317
   42b70:	0004377c 	xorhi	zero,zero,4317
   42b74:	0004377c 	xorhi	zero,zero,4317
   42b78:	0004377c 	xorhi	zero,zero,4317
   42b7c:	00042fac 	andhi	zero,zero,4286
   42b80:	0004377c 	xorhi	zero,zero,4317
   42b84:	0004377c 	xorhi	zero,zero,4317
   42b88:	00042fb8 	rdprs	zero,zero,4286
   42b8c:	0004377c 	xorhi	zero,zero,4317
   42b90:	0004377c 	xorhi	zero,zero,4317
   42b94:	0004377c 	xorhi	zero,zero,4317
   42b98:	0004377c 	xorhi	zero,zero,4317
   42b9c:	0004377c 	xorhi	zero,zero,4317
   42ba0:	0004343c 	xorhi	zero,zero,4304
   42ba4:	0004377c 	xorhi	zero,zero,4317
   42ba8:	0004377c 	xorhi	zero,zero,4317
   42bac:	000434a8 	cmpgeui	zero,zero,4306
   42bb0:	0004377c 	xorhi	zero,zero,4317
   42bb4:	0004377c 	xorhi	zero,zero,4317
   42bb8:	0004377c 	xorhi	zero,zero,4317
   42bbc:	0004377c 	xorhi	zero,zero,4317
   42bc0:	0004377c 	xorhi	zero,zero,4317
   42bc4:	0004377c 	xorhi	zero,zero,4317
   42bc8:	0004377c 	xorhi	zero,zero,4317
   42bcc:	0004377c 	xorhi	zero,zero,4317
   42bd0:	0004377c 	xorhi	zero,zero,4317
   42bd4:	0004377c 	xorhi	zero,zero,4317
   42bd8:	00043720 	cmpeqi	zero,zero,4316
   42bdc:	000436a0 	cmpeqi	zero,zero,4314
   42be0:	00042f00 	call	42f0 <__reset-0x3bd10>
   42be4:	00042f00 	call	42f0 <__reset-0x3bd10>
   42be8:	00042f00 	call	42f0 <__reset-0x3bd10>
   42bec:	000436c0 	call	436c <__reset-0x3bc94>
   42bf0:	000436a0 	cmpeqi	zero,zero,4314
   42bf4:	0004377c 	xorhi	zero,zero,4317
   42bf8:	0004377c 	xorhi	zero,zero,4317
   42bfc:	000436cc 	andi	zero,zero,4315
   42c00:	0004377c 	xorhi	zero,zero,4317
   42c04:	000436e0 	cmpeqi	zero,zero,4315
   42c08:	00043564 	muli	zero,zero,4309
   42c0c:	00042c4c 	andi	zero,zero,4273
   42c10:	0004359c 	xori	zero,zero,4310
   42c14:	0004377c 	xorhi	zero,zero,4317
   42c18:	000435a8 	cmpgeui	zero,zero,4310
   42c1c:	0004377c 	xorhi	zero,zero,4317
   42c20:	0004360c 	andi	zero,zero,4312
   42c24:	0004377c 	xorhi	zero,zero,4317
   42c28:	0004377c 	xorhi	zero,zero,4317
   42c2c:	0004362c 	andhi	zero,zero,4312
   42c30:	d8c03117 	ldw	r3,196(sp)
   42c34:	d8802e15 	stw	r2,184(sp)
   42c38:	00c7c83a 	sub	r3,zero,r3
   42c3c:	d8c03115 	stw	r3,196(sp)
   42c40:	84000114 	ori	r16,r16,4
   42c44:	ac400007 	ldb	r17,0(r21)
   42c48:	003f9706 	br	42aa8 <__alt_data_end+0xfffd6b88>
   42c4c:	00800c04 	movi	r2,48
   42c50:	d8802705 	stb	r2,156(sp)
   42c54:	00801e04 	movi	r2,120
   42c58:	d8802745 	stb	r2,157(sp)
   42c5c:	d9002a17 	ldw	r4,168(sp)
   42c60:	d8802e17 	ldw	r2,184(sp)
   42c64:	d8002785 	stb	zero,158(sp)
   42c68:	e011883a 	mov	r8,fp
   42c6c:	10c00104 	addi	r3,r2,4
   42c70:	14c00017 	ldw	r19,0(r2)
   42c74:	002d883a 	mov	r22,zero
   42c78:	80800094 	ori	r2,r16,2
   42c7c:	2002ca16 	blt	r4,zero,437a8 <___vfprintf_internal_r+0xe88>
   42c80:	00bfdfc4 	movi	r2,-129
   42c84:	80a4703a 	and	r18,r16,r2
   42c88:	d8c02e15 	stw	r3,184(sp)
   42c8c:	94800094 	ori	r18,r18,2
   42c90:	9802b41e 	bne	r19,zero,43764 <___vfprintf_internal_r+0xe44>
   42c94:	01400174 	movhi	r5,5
   42c98:	29420204 	addi	r5,r5,2056
   42c9c:	d9403915 	stw	r5,228(sp)
   42ca0:	04401e04 	movi	r17,120
   42ca4:	d8802a17 	ldw	r2,168(sp)
   42ca8:	0039883a 	mov	fp,zero
   42cac:	1001fa26 	beq	r2,zero,43498 <___vfprintf_internal_r+0xb78>
   42cb0:	0027883a 	mov	r19,zero
   42cb4:	002d883a 	mov	r22,zero
   42cb8:	00021906 	br	43520 <___vfprintf_internal_r+0xc00>
   42cbc:	d9002d17 	ldw	r4,180(sp)
   42cc0:	b80b883a 	mov	r5,r23
   42cc4:	0044d340 	call	44d34 <__swsetup_r>
   42cc8:	1005dc1e 	bne	r2,zero,4443c <___vfprintf_internal_r+0x1b1c>
   42ccc:	b880030b 	ldhu	r2,12(r23)
   42cd0:	00c00284 	movi	r3,10
   42cd4:	1080068c 	andi	r2,r2,26
   42cd8:	10ff3a1e 	bne	r2,r3,429c4 <__alt_data_end+0xfffd6aa4>
   42cdc:	b880038f 	ldh	r2,14(r23)
   42ce0:	103f3816 	blt	r2,zero,429c4 <__alt_data_end+0xfffd6aa4>
   42ce4:	d9c02e17 	ldw	r7,184(sp)
   42ce8:	d9002d17 	ldw	r4,180(sp)
   42cec:	a80d883a 	mov	r6,r21
   42cf0:	b80b883a 	mov	r5,r23
   42cf4:	0044c180 	call	44c18 <__sbprintf>
   42cf8:	00001106 	br	42d40 <___vfprintf_internal_r+0x420>
   42cfc:	d9002d17 	ldw	r4,180(sp)
   42d00:	d9801e04 	addi	r6,sp,120
   42d04:	b80b883a 	mov	r5,r23
   42d08:	0048ae00 	call	48ae0 <__sprint_r>
   42d0c:	1000081e 	bne	r2,zero,42d30 <___vfprintf_internal_r+0x410>
   42d10:	da000404 	addi	r8,sp,16
   42d14:	003f5106 	br	42a5c <__alt_data_end+0xfffd6b3c>
   42d18:	d8802017 	ldw	r2,128(sp)
   42d1c:	10000426 	beq	r2,zero,42d30 <___vfprintf_internal_r+0x410>
   42d20:	d9002d17 	ldw	r4,180(sp)
   42d24:	d9801e04 	addi	r6,sp,120
   42d28:	b80b883a 	mov	r5,r23
   42d2c:	0048ae00 	call	48ae0 <__sprint_r>
   42d30:	b880030b 	ldhu	r2,12(r23)
   42d34:	1080100c 	andi	r2,r2,64
   42d38:	1005c01e 	bne	r2,zero,4443c <___vfprintf_internal_r+0x1b1c>
   42d3c:	d8802f17 	ldw	r2,188(sp)
   42d40:	dfc04717 	ldw	ra,284(sp)
   42d44:	df004617 	ldw	fp,280(sp)
   42d48:	ddc04517 	ldw	r23,276(sp)
   42d4c:	dd804417 	ldw	r22,272(sp)
   42d50:	dd404317 	ldw	r21,268(sp)
   42d54:	dd004217 	ldw	r20,264(sp)
   42d58:	dcc04117 	ldw	r19,260(sp)
   42d5c:	dc804017 	ldw	r18,256(sp)
   42d60:	dc403f17 	ldw	r17,252(sp)
   42d64:	dc003e17 	ldw	r16,248(sp)
   42d68:	dec04804 	addi	sp,sp,288
   42d6c:	f800283a 	ret
   42d70:	d9002d17 	ldw	r4,180(sp)
   42d74:	0040b240 	call	40b24 <__sinit>
   42d78:	003f0206 	br	42984 <__alt_data_end+0xfffd6a64>
   42d7c:	d9002e17 	ldw	r4,184(sp)
   42d80:	d9402e17 	ldw	r5,184(sp)
   42d84:	21000017 	ldw	r4,0(r4)
   42d88:	28800104 	addi	r2,r5,4
   42d8c:	d9003115 	stw	r4,196(sp)
   42d90:	203fa716 	blt	r4,zero,42c30 <__alt_data_end+0xfffd6d10>
   42d94:	d8802e15 	stw	r2,184(sp)
   42d98:	ac400007 	ldb	r17,0(r21)
   42d9c:	003f4206 	br	42aa8 <__alt_data_end+0xfffd6b88>
   42da0:	ac400007 	ldb	r17,0(r21)
   42da4:	01000a84 	movi	r4,42
   42da8:	a8c00044 	addi	r3,r21,1
   42dac:	89075826 	beq	r17,r4,44b10 <___vfprintf_internal_r+0x21f0>
   42db0:	8cbff404 	addi	r18,r17,-48
   42db4:	b486ae36 	bltu	r22,r18,44870 <___vfprintf_internal_r+0x1f50>
   42db8:	0009883a 	mov	r4,zero
   42dbc:	1823883a 	mov	r17,r3
   42dc0:	01400284 	movi	r5,10
   42dc4:	004b4740 	call	4b474 <__mulsi3>
   42dc8:	88c00007 	ldb	r3,0(r17)
   42dcc:	1489883a 	add	r4,r2,r18
   42dd0:	8d400044 	addi	r21,r17,1
   42dd4:	1cbff404 	addi	r18,r3,-48
   42dd8:	a823883a 	mov	r17,r21
   42ddc:	b4bff82e 	bgeu	r22,r18,42dc0 <__alt_data_end+0xfffd6ea0>
   42de0:	1823883a 	mov	r17,r3
   42de4:	2005f616 	blt	r4,zero,445c0 <___vfprintf_internal_r+0x1ca0>
   42de8:	d9002a15 	stw	r4,168(sp)
   42dec:	003f2f06 	br	42aac <__alt_data_end+0xfffd6b8c>
   42df0:	84002014 	ori	r16,r16,128
   42df4:	ac400007 	ldb	r17,0(r21)
   42df8:	003f2b06 	br	42aa8 <__alt_data_end+0xfffd6b88>
   42dfc:	8cbff404 	addi	r18,r17,-48
   42e00:	d8003115 	stw	zero,196(sp)
   42e04:	0009883a 	mov	r4,zero
   42e08:	a823883a 	mov	r17,r21
   42e0c:	01400284 	movi	r5,10
   42e10:	004b4740 	call	4b474 <__mulsi3>
   42e14:	88c00007 	ldb	r3,0(r17)
   42e18:	9089883a 	add	r4,r18,r2
   42e1c:	ad400044 	addi	r21,r21,1
   42e20:	1cbff404 	addi	r18,r3,-48
   42e24:	a823883a 	mov	r17,r21
   42e28:	b4bff82e 	bgeu	r22,r18,42e0c <__alt_data_end+0xfffd6eec>
   42e2c:	1823883a 	mov	r17,r3
   42e30:	d9003115 	stw	r4,196(sp)
   42e34:	003f1d06 	br	42aac <__alt_data_end+0xfffd6b8c>
   42e38:	8025883a 	mov	r18,r16
   42e3c:	dc002903 	ldbu	r16,164(sp)
   42e40:	e011883a 	mov	r8,fp
   42e44:	84003fcc 	andi	r16,r16,255
   42e48:	8007531e 	bne	r16,zero,44b98 <___vfprintf_internal_r+0x2278>
   42e4c:	94800414 	ori	r18,r18,16
   42e50:	9080080c 	andi	r2,r18,32
   42e54:	1003a326 	beq	r2,zero,43ce4 <___vfprintf_internal_r+0x13c4>
   42e58:	d9002e17 	ldw	r4,184(sp)
   42e5c:	20800117 	ldw	r2,4(r4)
   42e60:	24c00017 	ldw	r19,0(r4)
   42e64:	21000204 	addi	r4,r4,8
   42e68:	d9002e15 	stw	r4,184(sp)
   42e6c:	102d883a 	mov	r22,r2
   42e70:	10047316 	blt	r2,zero,44040 <___vfprintf_internal_r+0x1720>
   42e74:	d9002a17 	ldw	r4,168(sp)
   42e78:	df002783 	ldbu	fp,158(sp)
   42e7c:	2003e416 	blt	r4,zero,43e10 <___vfprintf_internal_r+0x14f0>
   42e80:	00ffdfc4 	movi	r3,-129
   42e84:	9d84b03a 	or	r2,r19,r22
   42e88:	90e4703a 	and	r18,r18,r3
   42e8c:	10018026 	beq	r2,zero,43490 <___vfprintf_internal_r+0xb70>
   42e90:	b003ab26 	beq	r22,zero,43d40 <___vfprintf_internal_r+0x1420>
   42e94:	dc402915 	stw	r17,164(sp)
   42e98:	dc001e04 	addi	r16,sp,120
   42e9c:	b023883a 	mov	r17,r22
   42ea0:	402d883a 	mov	r22,r8
   42ea4:	9809883a 	mov	r4,r19
   42ea8:	880b883a 	mov	r5,r17
   42eac:	01800284 	movi	r6,10
   42eb0:	000f883a 	mov	r7,zero
   42eb4:	004acfc0 	call	4acfc <__umoddi3>
   42eb8:	10800c04 	addi	r2,r2,48
   42ebc:	843fffc4 	addi	r16,r16,-1
   42ec0:	9809883a 	mov	r4,r19
   42ec4:	880b883a 	mov	r5,r17
   42ec8:	80800005 	stb	r2,0(r16)
   42ecc:	01800284 	movi	r6,10
   42ed0:	000f883a 	mov	r7,zero
   42ed4:	004a7000 	call	4a700 <__udivdi3>
   42ed8:	1027883a 	mov	r19,r2
   42edc:	10c4b03a 	or	r2,r2,r3
   42ee0:	1823883a 	mov	r17,r3
   42ee4:	103fef1e 	bne	r2,zero,42ea4 <__alt_data_end+0xfffd6f84>
   42ee8:	d8c02817 	ldw	r3,160(sp)
   42eec:	dc402917 	ldw	r17,164(sp)
   42ef0:	b011883a 	mov	r8,r22
   42ef4:	1c07c83a 	sub	r3,r3,r16
   42ef8:	d8c02b15 	stw	r3,172(sp)
   42efc:	00005f06 	br	4307c <___vfprintf_internal_r+0x75c>
   42f00:	8025883a 	mov	r18,r16
   42f04:	dc002903 	ldbu	r16,164(sp)
   42f08:	e011883a 	mov	r8,fp
   42f0c:	84003fcc 	andi	r16,r16,255
   42f10:	80071e1e 	bne	r16,zero,44b8c <___vfprintf_internal_r+0x226c>
   42f14:	9080020c 	andi	r2,r18,8
   42f18:	1004af26 	beq	r2,zero,441d8 <___vfprintf_internal_r+0x18b8>
   42f1c:	d9002e17 	ldw	r4,184(sp)
   42f20:	d9402e17 	ldw	r5,184(sp)
   42f24:	d8802e17 	ldw	r2,184(sp)
   42f28:	21000017 	ldw	r4,0(r4)
   42f2c:	29400117 	ldw	r5,4(r5)
   42f30:	10800204 	addi	r2,r2,8
   42f34:	d9003615 	stw	r4,216(sp)
   42f38:	d9403815 	stw	r5,224(sp)
   42f3c:	d8802e15 	stw	r2,184(sp)
   42f40:	d9003617 	ldw	r4,216(sp)
   42f44:	d9403817 	ldw	r5,224(sp)
   42f48:	da003d15 	stw	r8,244(sp)
   42f4c:	04000044 	movi	r16,1
   42f50:	00488940 	call	48894 <__fpclassifyd>
   42f54:	da003d17 	ldw	r8,244(sp)
   42f58:	1404441e 	bne	r2,r16,4406c <___vfprintf_internal_r+0x174c>
   42f5c:	d9003617 	ldw	r4,216(sp)
   42f60:	d9403817 	ldw	r5,224(sp)
   42f64:	000d883a 	mov	r6,zero
   42f68:	000f883a 	mov	r7,zero
   42f6c:	004c87c0 	call	4c87c <__ledf2>
   42f70:	da003d17 	ldw	r8,244(sp)
   42f74:	1005e316 	blt	r2,zero,44704 <___vfprintf_internal_r+0x1de4>
   42f78:	df002783 	ldbu	fp,158(sp)
   42f7c:	008011c4 	movi	r2,71
   42f80:	1445580e 	bge	r2,r17,444e4 <___vfprintf_internal_r+0x1bc4>
   42f84:	04000174 	movhi	r16,5
   42f88:	8401fa04 	addi	r16,r16,2024
   42f8c:	00c000c4 	movi	r3,3
   42f90:	00bfdfc4 	movi	r2,-129
   42f94:	d8c02915 	stw	r3,164(sp)
   42f98:	90a4703a 	and	r18,r18,r2
   42f9c:	d8c02b15 	stw	r3,172(sp)
   42fa0:	d8002a15 	stw	zero,168(sp)
   42fa4:	d8003215 	stw	zero,200(sp)
   42fa8:	00003a06 	br	43094 <___vfprintf_internal_r+0x774>
   42fac:	84000214 	ori	r16,r16,8
   42fb0:	ac400007 	ldb	r17,0(r21)
   42fb4:	003ebc06 	br	42aa8 <__alt_data_end+0xfffd6b88>
   42fb8:	8025883a 	mov	r18,r16
   42fbc:	dc002903 	ldbu	r16,164(sp)
   42fc0:	e011883a 	mov	r8,fp
   42fc4:	84003fcc 	andi	r16,r16,255
   42fc8:	8007001e 	bne	r16,zero,44bcc <___vfprintf_internal_r+0x22ac>
   42fcc:	94800414 	ori	r18,r18,16
   42fd0:	9080080c 	andi	r2,r18,32
   42fd4:	1002fa26 	beq	r2,zero,43bc0 <___vfprintf_internal_r+0x12a0>
   42fd8:	d9002e17 	ldw	r4,184(sp)
   42fdc:	d9402a17 	ldw	r5,168(sp)
   42fe0:	d8002785 	stb	zero,158(sp)
   42fe4:	20800204 	addi	r2,r4,8
   42fe8:	24c00017 	ldw	r19,0(r4)
   42fec:	25800117 	ldw	r22,4(r4)
   42ff0:	2804b116 	blt	r5,zero,442b8 <___vfprintf_internal_r+0x1998>
   42ff4:	013fdfc4 	movi	r4,-129
   42ff8:	9d86b03a 	or	r3,r19,r22
   42ffc:	d8802e15 	stw	r2,184(sp)
   43000:	9124703a 	and	r18,r18,r4
   43004:	1802fb1e 	bne	r3,zero,43bf4 <___vfprintf_internal_r+0x12d4>
   43008:	d8c02a17 	ldw	r3,168(sp)
   4300c:	0039883a 	mov	fp,zero
   43010:	1805e526 	beq	r3,zero,447a8 <___vfprintf_internal_r+0x1e88>
   43014:	0027883a 	mov	r19,zero
   43018:	002d883a 	mov	r22,zero
   4301c:	dc001e04 	addi	r16,sp,120
   43020:	9806d0fa 	srli	r3,r19,3
   43024:	b008977a 	slli	r4,r22,29
   43028:	b02cd0fa 	srli	r22,r22,3
   4302c:	9cc001cc 	andi	r19,r19,7
   43030:	98800c04 	addi	r2,r19,48
   43034:	843fffc4 	addi	r16,r16,-1
   43038:	20e6b03a 	or	r19,r4,r3
   4303c:	80800005 	stb	r2,0(r16)
   43040:	9d86b03a 	or	r3,r19,r22
   43044:	183ff61e 	bne	r3,zero,43020 <__alt_data_end+0xfffd7100>
   43048:	90c0004c 	andi	r3,r18,1
   4304c:	18014126 	beq	r3,zero,43554 <___vfprintf_internal_r+0xc34>
   43050:	10803fcc 	andi	r2,r2,255
   43054:	1080201c 	xori	r2,r2,128
   43058:	10bfe004 	addi	r2,r2,-128
   4305c:	00c00c04 	movi	r3,48
   43060:	10c13c26 	beq	r2,r3,43554 <___vfprintf_internal_r+0xc34>
   43064:	80ffffc5 	stb	r3,-1(r16)
   43068:	d8c02817 	ldw	r3,160(sp)
   4306c:	80bfffc4 	addi	r2,r16,-1
   43070:	1021883a 	mov	r16,r2
   43074:	1887c83a 	sub	r3,r3,r2
   43078:	d8c02b15 	stw	r3,172(sp)
   4307c:	d8802b17 	ldw	r2,172(sp)
   43080:	d9002a17 	ldw	r4,168(sp)
   43084:	1100010e 	bge	r2,r4,4308c <___vfprintf_internal_r+0x76c>
   43088:	2005883a 	mov	r2,r4
   4308c:	d8802915 	stw	r2,164(sp)
   43090:	d8003215 	stw	zero,200(sp)
   43094:	e7003fcc 	andi	fp,fp,255
   43098:	e700201c 	xori	fp,fp,128
   4309c:	e73fe004 	addi	fp,fp,-128
   430a0:	e0000326 	beq	fp,zero,430b0 <___vfprintf_internal_r+0x790>
   430a4:	d8c02917 	ldw	r3,164(sp)
   430a8:	18c00044 	addi	r3,r3,1
   430ac:	d8c02915 	stw	r3,164(sp)
   430b0:	90c0008c 	andi	r3,r18,2
   430b4:	d8c02c15 	stw	r3,176(sp)
   430b8:	18000326 	beq	r3,zero,430c8 <___vfprintf_internal_r+0x7a8>
   430bc:	d8c02917 	ldw	r3,164(sp)
   430c0:	18c00084 	addi	r3,r3,2
   430c4:	d8c02915 	stw	r3,164(sp)
   430c8:	90c0210c 	andi	r3,r18,132
   430cc:	d8c03015 	stw	r3,192(sp)
   430d0:	1801c51e 	bne	r3,zero,437e8 <___vfprintf_internal_r+0xec8>
   430d4:	d9003117 	ldw	r4,196(sp)
   430d8:	d8c02917 	ldw	r3,164(sp)
   430dc:	20e7c83a 	sub	r19,r4,r3
   430e0:	04c1c10e 	bge	zero,r19,437e8 <___vfprintf_internal_r+0xec8>
   430e4:	02400404 	movi	r9,16
   430e8:	d8c02017 	ldw	r3,128(sp)
   430ec:	d8801f17 	ldw	r2,124(sp)
   430f0:	4cc52f0e 	bge	r9,r19,445b0 <___vfprintf_internal_r+0x1c90>
   430f4:	01400174 	movhi	r5,5
   430f8:	29420d84 	addi	r5,r5,2102
   430fc:	dc403b15 	stw	r17,236(sp)
   43100:	d9403515 	stw	r5,212(sp)
   43104:	9823883a 	mov	r17,r19
   43108:	482d883a 	mov	r22,r9
   4310c:	9027883a 	mov	r19,r18
   43110:	070001c4 	movi	fp,7
   43114:	8025883a 	mov	r18,r16
   43118:	dc002d17 	ldw	r16,180(sp)
   4311c:	00000306 	br	4312c <___vfprintf_internal_r+0x80c>
   43120:	8c7ffc04 	addi	r17,r17,-16
   43124:	42000204 	addi	r8,r8,8
   43128:	b440130e 	bge	r22,r17,43178 <___vfprintf_internal_r+0x858>
   4312c:	01000174 	movhi	r4,5
   43130:	18c00404 	addi	r3,r3,16
   43134:	10800044 	addi	r2,r2,1
   43138:	21020d84 	addi	r4,r4,2102
   4313c:	41000015 	stw	r4,0(r8)
   43140:	45800115 	stw	r22,4(r8)
   43144:	d8c02015 	stw	r3,128(sp)
   43148:	d8801f15 	stw	r2,124(sp)
   4314c:	e0bff40e 	bge	fp,r2,43120 <__alt_data_end+0xfffd7200>
   43150:	d9801e04 	addi	r6,sp,120
   43154:	b80b883a 	mov	r5,r23
   43158:	8009883a 	mov	r4,r16
   4315c:	0048ae00 	call	48ae0 <__sprint_r>
   43160:	103ef31e 	bne	r2,zero,42d30 <__alt_data_end+0xfffd6e10>
   43164:	8c7ffc04 	addi	r17,r17,-16
   43168:	d8c02017 	ldw	r3,128(sp)
   4316c:	d8801f17 	ldw	r2,124(sp)
   43170:	da000404 	addi	r8,sp,16
   43174:	b47fed16 	blt	r22,r17,4312c <__alt_data_end+0xfffd720c>
   43178:	9021883a 	mov	r16,r18
   4317c:	9825883a 	mov	r18,r19
   43180:	8827883a 	mov	r19,r17
   43184:	dc403b17 	ldw	r17,236(sp)
   43188:	d9403517 	ldw	r5,212(sp)
   4318c:	98c7883a 	add	r3,r19,r3
   43190:	10800044 	addi	r2,r2,1
   43194:	41400015 	stw	r5,0(r8)
   43198:	44c00115 	stw	r19,4(r8)
   4319c:	d8c02015 	stw	r3,128(sp)
   431a0:	d8801f15 	stw	r2,124(sp)
   431a4:	010001c4 	movi	r4,7
   431a8:	2082c516 	blt	r4,r2,43cc0 <___vfprintf_internal_r+0x13a0>
   431ac:	df002787 	ldb	fp,158(sp)
   431b0:	42000204 	addi	r8,r8,8
   431b4:	e0000c26 	beq	fp,zero,431e8 <___vfprintf_internal_r+0x8c8>
   431b8:	d8801f17 	ldw	r2,124(sp)
   431bc:	d9002784 	addi	r4,sp,158
   431c0:	18c00044 	addi	r3,r3,1
   431c4:	10800044 	addi	r2,r2,1
   431c8:	41000015 	stw	r4,0(r8)
   431cc:	01000044 	movi	r4,1
   431d0:	41000115 	stw	r4,4(r8)
   431d4:	d8c02015 	stw	r3,128(sp)
   431d8:	d8801f15 	stw	r2,124(sp)
   431dc:	010001c4 	movi	r4,7
   431e0:	20825e16 	blt	r4,r2,43b5c <___vfprintf_internal_r+0x123c>
   431e4:	42000204 	addi	r8,r8,8
   431e8:	d8802c17 	ldw	r2,176(sp)
   431ec:	10000c26 	beq	r2,zero,43220 <___vfprintf_internal_r+0x900>
   431f0:	d8801f17 	ldw	r2,124(sp)
   431f4:	d9002704 	addi	r4,sp,156
   431f8:	18c00084 	addi	r3,r3,2
   431fc:	10800044 	addi	r2,r2,1
   43200:	41000015 	stw	r4,0(r8)
   43204:	01000084 	movi	r4,2
   43208:	41000115 	stw	r4,4(r8)
   4320c:	d8c02015 	stw	r3,128(sp)
   43210:	d8801f15 	stw	r2,124(sp)
   43214:	010001c4 	movi	r4,7
   43218:	20825816 	blt	r4,r2,43b7c <___vfprintf_internal_r+0x125c>
   4321c:	42000204 	addi	r8,r8,8
   43220:	d9003017 	ldw	r4,192(sp)
   43224:	00802004 	movi	r2,128
   43228:	2081bb26 	beq	r4,r2,43918 <___vfprintf_internal_r+0xff8>
   4322c:	d9402a17 	ldw	r5,168(sp)
   43230:	d8802b17 	ldw	r2,172(sp)
   43234:	28adc83a 	sub	r22,r5,r2
   43238:	0580310e 	bge	zero,r22,43300 <___vfprintf_internal_r+0x9e0>
   4323c:	07000404 	movi	fp,16
   43240:	d8801f17 	ldw	r2,124(sp)
   43244:	e584360e 	bge	fp,r22,44320 <___vfprintf_internal_r+0x1a00>
   43248:	01400174 	movhi	r5,5
   4324c:	29420984 	addi	r5,r5,2086
   43250:	dc402a15 	stw	r17,168(sp)
   43254:	d9402c15 	stw	r5,176(sp)
   43258:	b023883a 	mov	r17,r22
   4325c:	04c001c4 	movi	r19,7
   43260:	a82d883a 	mov	r22,r21
   43264:	902b883a 	mov	r21,r18
   43268:	8025883a 	mov	r18,r16
   4326c:	dc002d17 	ldw	r16,180(sp)
   43270:	00000306 	br	43280 <___vfprintf_internal_r+0x960>
   43274:	8c7ffc04 	addi	r17,r17,-16
   43278:	42000204 	addi	r8,r8,8
   4327c:	e440110e 	bge	fp,r17,432c4 <___vfprintf_internal_r+0x9a4>
   43280:	18c00404 	addi	r3,r3,16
   43284:	10800044 	addi	r2,r2,1
   43288:	45000015 	stw	r20,0(r8)
   4328c:	47000115 	stw	fp,4(r8)
   43290:	d8c02015 	stw	r3,128(sp)
   43294:	d8801f15 	stw	r2,124(sp)
   43298:	98bff60e 	bge	r19,r2,43274 <__alt_data_end+0xfffd7354>
   4329c:	d9801e04 	addi	r6,sp,120
   432a0:	b80b883a 	mov	r5,r23
   432a4:	8009883a 	mov	r4,r16
   432a8:	0048ae00 	call	48ae0 <__sprint_r>
   432ac:	103ea01e 	bne	r2,zero,42d30 <__alt_data_end+0xfffd6e10>
   432b0:	8c7ffc04 	addi	r17,r17,-16
   432b4:	d8c02017 	ldw	r3,128(sp)
   432b8:	d8801f17 	ldw	r2,124(sp)
   432bc:	da000404 	addi	r8,sp,16
   432c0:	e47fef16 	blt	fp,r17,43280 <__alt_data_end+0xfffd7360>
   432c4:	9021883a 	mov	r16,r18
   432c8:	a825883a 	mov	r18,r21
   432cc:	b02b883a 	mov	r21,r22
   432d0:	882d883a 	mov	r22,r17
   432d4:	dc402a17 	ldw	r17,168(sp)
   432d8:	d9002c17 	ldw	r4,176(sp)
   432dc:	1d87883a 	add	r3,r3,r22
   432e0:	10800044 	addi	r2,r2,1
   432e4:	41000015 	stw	r4,0(r8)
   432e8:	45800115 	stw	r22,4(r8)
   432ec:	d8c02015 	stw	r3,128(sp)
   432f0:	d8801f15 	stw	r2,124(sp)
   432f4:	010001c4 	movi	r4,7
   432f8:	20821016 	blt	r4,r2,43b3c <___vfprintf_internal_r+0x121c>
   432fc:	42000204 	addi	r8,r8,8
   43300:	9080400c 	andi	r2,r18,256
   43304:	10013a1e 	bne	r2,zero,437f0 <___vfprintf_internal_r+0xed0>
   43308:	d9402b17 	ldw	r5,172(sp)
   4330c:	d8801f17 	ldw	r2,124(sp)
   43310:	44000015 	stw	r16,0(r8)
   43314:	1947883a 	add	r3,r3,r5
   43318:	10800044 	addi	r2,r2,1
   4331c:	41400115 	stw	r5,4(r8)
   43320:	d8c02015 	stw	r3,128(sp)
   43324:	d8801f15 	stw	r2,124(sp)
   43328:	010001c4 	movi	r4,7
   4332c:	2081f516 	blt	r4,r2,43b04 <___vfprintf_internal_r+0x11e4>
   43330:	42000204 	addi	r8,r8,8
   43334:	9480010c 	andi	r18,r18,4
   43338:	90003226 	beq	r18,zero,43404 <___vfprintf_internal_r+0xae4>
   4333c:	d9403117 	ldw	r5,196(sp)
   43340:	d8802917 	ldw	r2,164(sp)
   43344:	28a1c83a 	sub	r16,r5,r2
   43348:	04002e0e 	bge	zero,r16,43404 <___vfprintf_internal_r+0xae4>
   4334c:	04400404 	movi	r17,16
   43350:	d8801f17 	ldw	r2,124(sp)
   43354:	8c04c40e 	bge	r17,r16,44668 <___vfprintf_internal_r+0x1d48>
   43358:	01400174 	movhi	r5,5
   4335c:	29420d84 	addi	r5,r5,2102
   43360:	d9403515 	stw	r5,212(sp)
   43364:	048001c4 	movi	r18,7
   43368:	dcc02d17 	ldw	r19,180(sp)
   4336c:	00000306 	br	4337c <___vfprintf_internal_r+0xa5c>
   43370:	843ffc04 	addi	r16,r16,-16
   43374:	42000204 	addi	r8,r8,8
   43378:	8c00130e 	bge	r17,r16,433c8 <___vfprintf_internal_r+0xaa8>
   4337c:	01000174 	movhi	r4,5
   43380:	18c00404 	addi	r3,r3,16
   43384:	10800044 	addi	r2,r2,1
   43388:	21020d84 	addi	r4,r4,2102
   4338c:	41000015 	stw	r4,0(r8)
   43390:	44400115 	stw	r17,4(r8)
   43394:	d8c02015 	stw	r3,128(sp)
   43398:	d8801f15 	stw	r2,124(sp)
   4339c:	90bff40e 	bge	r18,r2,43370 <__alt_data_end+0xfffd7450>
   433a0:	d9801e04 	addi	r6,sp,120
   433a4:	b80b883a 	mov	r5,r23
   433a8:	9809883a 	mov	r4,r19
   433ac:	0048ae00 	call	48ae0 <__sprint_r>
   433b0:	103e5f1e 	bne	r2,zero,42d30 <__alt_data_end+0xfffd6e10>
   433b4:	843ffc04 	addi	r16,r16,-16
   433b8:	d8c02017 	ldw	r3,128(sp)
   433bc:	d8801f17 	ldw	r2,124(sp)
   433c0:	da000404 	addi	r8,sp,16
   433c4:	8c3fed16 	blt	r17,r16,4337c <__alt_data_end+0xfffd745c>
   433c8:	d9403517 	ldw	r5,212(sp)
   433cc:	1c07883a 	add	r3,r3,r16
   433d0:	10800044 	addi	r2,r2,1
   433d4:	41400015 	stw	r5,0(r8)
   433d8:	44000115 	stw	r16,4(r8)
   433dc:	d8c02015 	stw	r3,128(sp)
   433e0:	d8801f15 	stw	r2,124(sp)
   433e4:	010001c4 	movi	r4,7
   433e8:	2080060e 	bge	r4,r2,43404 <___vfprintf_internal_r+0xae4>
   433ec:	d9002d17 	ldw	r4,180(sp)
   433f0:	d9801e04 	addi	r6,sp,120
   433f4:	b80b883a 	mov	r5,r23
   433f8:	0048ae00 	call	48ae0 <__sprint_r>
   433fc:	103e4c1e 	bne	r2,zero,42d30 <__alt_data_end+0xfffd6e10>
   43400:	d8c02017 	ldw	r3,128(sp)
   43404:	d8803117 	ldw	r2,196(sp)
   43408:	d9002917 	ldw	r4,164(sp)
   4340c:	1100010e 	bge	r2,r4,43414 <___vfprintf_internal_r+0xaf4>
   43410:	2005883a 	mov	r2,r4
   43414:	d9402f17 	ldw	r5,188(sp)
   43418:	288b883a 	add	r5,r5,r2
   4341c:	d9402f15 	stw	r5,188(sp)
   43420:	1801c01e 	bne	r3,zero,43b24 <___vfprintf_internal_r+0x1204>
   43424:	a8800007 	ldb	r2,0(r21)
   43428:	d8001f15 	stw	zero,124(sp)
   4342c:	da000404 	addi	r8,sp,16
   43430:	103d751e 	bne	r2,zero,42a08 <__alt_data_end+0xfffd6ae8>
   43434:	a823883a 	mov	r17,r21
   43438:	003d8b06 	br	42a68 <__alt_data_end+0xfffd6b48>
   4343c:	8025883a 	mov	r18,r16
   43440:	dc002903 	ldbu	r16,164(sp)
   43444:	e011883a 	mov	r8,fp
   43448:	84003fcc 	andi	r16,r16,255
   4344c:	8005e51e 	bne	r16,zero,44be4 <___vfprintf_internal_r+0x22c4>
   43450:	94800414 	ori	r18,r18,16
   43454:	9080080c 	andi	r2,r18,32
   43458:	10022b26 	beq	r2,zero,43d08 <___vfprintf_internal_r+0x13e8>
   4345c:	d9002e17 	ldw	r4,184(sp)
   43460:	d9402a17 	ldw	r5,168(sp)
   43464:	d8002785 	stb	zero,158(sp)
   43468:	20c00204 	addi	r3,r4,8
   4346c:	24c00017 	ldw	r19,0(r4)
   43470:	25800117 	ldw	r22,4(r4)
   43474:	28042e16 	blt	r5,zero,44530 <___vfprintf_internal_r+0x1c10>
   43478:	013fdfc4 	movi	r4,-129
   4347c:	9d84b03a 	or	r2,r19,r22
   43480:	d8c02e15 	stw	r3,184(sp)
   43484:	9124703a 	and	r18,r18,r4
   43488:	0039883a 	mov	fp,zero
   4348c:	103e801e 	bne	r2,zero,42e90 <__alt_data_end+0xfffd6f70>
   43490:	d9002a17 	ldw	r4,168(sp)
   43494:	2002e01e 	bne	r4,zero,44018 <___vfprintf_internal_r+0x16f8>
   43498:	d8002a15 	stw	zero,168(sp)
   4349c:	d8002b15 	stw	zero,172(sp)
   434a0:	dc001e04 	addi	r16,sp,120
   434a4:	003ef506 	br	4307c <__alt_data_end+0xfffd715c>
   434a8:	8025883a 	mov	r18,r16
   434ac:	dc002903 	ldbu	r16,164(sp)
   434b0:	e011883a 	mov	r8,fp
   434b4:	84003fcc 	andi	r16,r16,255
   434b8:	8005ba1e 	bne	r16,zero,44ba4 <___vfprintf_internal_r+0x2284>
   434bc:	01000174 	movhi	r4,5
   434c0:	2101fd04 	addi	r4,r4,2036
   434c4:	d9003915 	stw	r4,228(sp)
   434c8:	9080080c 	andi	r2,r18,32
   434cc:	10006126 	beq	r2,zero,43654 <___vfprintf_internal_r+0xd34>
   434d0:	d9402e17 	ldw	r5,184(sp)
   434d4:	2cc00017 	ldw	r19,0(r5)
   434d8:	2d800117 	ldw	r22,4(r5)
   434dc:	29400204 	addi	r5,r5,8
   434e0:	d9402e15 	stw	r5,184(sp)
   434e4:	9080004c 	andi	r2,r18,1
   434e8:	1001ac26 	beq	r2,zero,43b9c <___vfprintf_internal_r+0x127c>
   434ec:	9d84b03a 	or	r2,r19,r22
   434f0:	10038526 	beq	r2,zero,44308 <___vfprintf_internal_r+0x19e8>
   434f4:	d8c02a17 	ldw	r3,168(sp)
   434f8:	00800c04 	movi	r2,48
   434fc:	d8802705 	stb	r2,156(sp)
   43500:	dc402745 	stb	r17,157(sp)
   43504:	d8002785 	stb	zero,158(sp)
   43508:	90800094 	ori	r2,r18,2
   4350c:	18047916 	blt	r3,zero,446f4 <___vfprintf_internal_r+0x1dd4>
   43510:	00bfdfc4 	movi	r2,-129
   43514:	90a4703a 	and	r18,r18,r2
   43518:	94800094 	ori	r18,r18,2
   4351c:	0039883a 	mov	fp,zero
   43520:	d9003917 	ldw	r4,228(sp)
   43524:	dc001e04 	addi	r16,sp,120
   43528:	988003cc 	andi	r2,r19,15
   4352c:	b006973a 	slli	r3,r22,28
   43530:	2085883a 	add	r2,r4,r2
   43534:	9826d13a 	srli	r19,r19,4
   43538:	10800003 	ldbu	r2,0(r2)
   4353c:	b02cd13a 	srli	r22,r22,4
   43540:	843fffc4 	addi	r16,r16,-1
   43544:	1ce6b03a 	or	r19,r3,r19
   43548:	80800005 	stb	r2,0(r16)
   4354c:	9d84b03a 	or	r2,r19,r22
   43550:	103ff51e 	bne	r2,zero,43528 <__alt_data_end+0xfffd7608>
   43554:	d8c02817 	ldw	r3,160(sp)
   43558:	1c07c83a 	sub	r3,r3,r16
   4355c:	d8c02b15 	stw	r3,172(sp)
   43560:	003ec606 	br	4307c <__alt_data_end+0xfffd715c>
   43564:	8025883a 	mov	r18,r16
   43568:	dc002903 	ldbu	r16,164(sp)
   4356c:	e011883a 	mov	r8,fp
   43570:	84003fcc 	andi	r16,r16,255
   43574:	803e9626 	beq	r16,zero,42fd0 <__alt_data_end+0xfffd70b0>
   43578:	d8c02b03 	ldbu	r3,172(sp)
   4357c:	d8c02785 	stb	r3,158(sp)
   43580:	003e9306 	br	42fd0 <__alt_data_end+0xfffd70b0>
   43584:	00c00044 	movi	r3,1
   43588:	d8c02905 	stb	r3,164(sp)
   4358c:	00c00ac4 	movi	r3,43
   43590:	d8c02b05 	stb	r3,172(sp)
   43594:	ac400007 	ldb	r17,0(r21)
   43598:	003d4306 	br	42aa8 <__alt_data_end+0xfffd6b88>
   4359c:	84000814 	ori	r16,r16,32
   435a0:	ac400007 	ldb	r17,0(r21)
   435a4:	003d4006 	br	42aa8 <__alt_data_end+0xfffd6b88>
   435a8:	d8802e17 	ldw	r2,184(sp)
   435ac:	8025883a 	mov	r18,r16
   435b0:	d8002785 	stb	zero,158(sp)
   435b4:	14000017 	ldw	r16,0(r2)
   435b8:	e011883a 	mov	r8,fp
   435bc:	14c00104 	addi	r19,r2,4
   435c0:	80042d26 	beq	r16,zero,44678 <___vfprintf_internal_r+0x1d58>
   435c4:	d8c02a17 	ldw	r3,168(sp)
   435c8:	1803e416 	blt	r3,zero,4455c <___vfprintf_internal_r+0x1c3c>
   435cc:	180d883a 	mov	r6,r3
   435d0:	000b883a 	mov	r5,zero
   435d4:	8009883a 	mov	r4,r16
   435d8:	df003d15 	stw	fp,244(sp)
   435dc:	0046e900 	call	46e90 <memchr>
   435e0:	da003d17 	ldw	r8,244(sp)
   435e4:	10046826 	beq	r2,zero,44788 <___vfprintf_internal_r+0x1e68>
   435e8:	1405c83a 	sub	r2,r2,r16
   435ec:	d8802b15 	stw	r2,172(sp)
   435f0:	1003e016 	blt	r2,zero,44574 <___vfprintf_internal_r+0x1c54>
   435f4:	df002783 	ldbu	fp,158(sp)
   435f8:	d8802915 	stw	r2,164(sp)
   435fc:	dcc02e15 	stw	r19,184(sp)
   43600:	d8002a15 	stw	zero,168(sp)
   43604:	d8003215 	stw	zero,200(sp)
   43608:	003ea206 	br	43094 <__alt_data_end+0xfffd7174>
   4360c:	8025883a 	mov	r18,r16
   43610:	dc002903 	ldbu	r16,164(sp)
   43614:	e011883a 	mov	r8,fp
   43618:	84003fcc 	andi	r16,r16,255
   4361c:	803f8d26 	beq	r16,zero,43454 <__alt_data_end+0xfffd7534>
   43620:	d8c02b03 	ldbu	r3,172(sp)
   43624:	d8c02785 	stb	r3,158(sp)
   43628:	003f8a06 	br	43454 <__alt_data_end+0xfffd7534>
   4362c:	8025883a 	mov	r18,r16
   43630:	dc002903 	ldbu	r16,164(sp)
   43634:	e011883a 	mov	r8,fp
   43638:	84003fcc 	andi	r16,r16,255
   4363c:	8005661e 	bne	r16,zero,44bd8 <___vfprintf_internal_r+0x22b8>
   43640:	01000174 	movhi	r4,5
   43644:	21020204 	addi	r4,r4,2056
   43648:	d9003915 	stw	r4,228(sp)
   4364c:	9080080c 	andi	r2,r18,32
   43650:	103f9f1e 	bne	r2,zero,434d0 <__alt_data_end+0xfffd75b0>
   43654:	9080040c 	andi	r2,r18,16
   43658:	1002eb26 	beq	r2,zero,44208 <___vfprintf_internal_r+0x18e8>
   4365c:	d8802e17 	ldw	r2,184(sp)
   43660:	002d883a 	mov	r22,zero
   43664:	14c00017 	ldw	r19,0(r2)
   43668:	10800104 	addi	r2,r2,4
   4366c:	d8802e15 	stw	r2,184(sp)
   43670:	003f9c06 	br	434e4 <__alt_data_end+0xfffd75c4>
   43674:	d8802b07 	ldb	r2,172(sp)
   43678:	1002e11e 	bne	r2,zero,44200 <___vfprintf_internal_r+0x18e0>
   4367c:	00c00044 	movi	r3,1
   43680:	d8c02905 	stb	r3,164(sp)
   43684:	00c00804 	movi	r3,32
   43688:	d8c02b05 	stb	r3,172(sp)
   4368c:	ac400007 	ldb	r17,0(r21)
   43690:	003d0506 	br	42aa8 <__alt_data_end+0xfffd6b88>
   43694:	84000054 	ori	r16,r16,1
   43698:	ac400007 	ldb	r17,0(r21)
   4369c:	003d0206 	br	42aa8 <__alt_data_end+0xfffd6b88>
   436a0:	8025883a 	mov	r18,r16
   436a4:	dc002903 	ldbu	r16,164(sp)
   436a8:	e011883a 	mov	r8,fp
   436ac:	84003fcc 	andi	r16,r16,255
   436b0:	803de726 	beq	r16,zero,42e50 <__alt_data_end+0xfffd6f30>
   436b4:	d8c02b03 	ldbu	r3,172(sp)
   436b8:	d8c02785 	stb	r3,158(sp)
   436bc:	003de406 	br	42e50 <__alt_data_end+0xfffd6f30>
   436c0:	84001014 	ori	r16,r16,64
   436c4:	ac400007 	ldb	r17,0(r21)
   436c8:	003cf706 	br	42aa8 <__alt_data_end+0xfffd6b88>
   436cc:	ac400007 	ldb	r17,0(r21)
   436d0:	00801b04 	movi	r2,108
   436d4:	88838f26 	beq	r17,r2,44514 <___vfprintf_internal_r+0x1bf4>
   436d8:	84000414 	ori	r16,r16,16
   436dc:	003cf206 	br	42aa8 <__alt_data_end+0xfffd6b88>
   436e0:	8025883a 	mov	r18,r16
   436e4:	dc002903 	ldbu	r16,164(sp)
   436e8:	e011883a 	mov	r8,fp
   436ec:	84003fcc 	andi	r16,r16,255
   436f0:	80053f1e 	bne	r16,zero,44bf0 <___vfprintf_internal_r+0x22d0>
   436f4:	9080080c 	andi	r2,r18,32
   436f8:	1002d226 	beq	r2,zero,44244 <___vfprintf_internal_r+0x1924>
   436fc:	d9002e17 	ldw	r4,184(sp)
   43700:	d9402f17 	ldw	r5,188(sp)
   43704:	20800017 	ldw	r2,0(r4)
   43708:	2807d7fa 	srai	r3,r5,31
   4370c:	21000104 	addi	r4,r4,4
   43710:	d9002e15 	stw	r4,184(sp)
   43714:	11400015 	stw	r5,0(r2)
   43718:	10c00115 	stw	r3,4(r2)
   4371c:	003cb806 	br	42a00 <__alt_data_end+0xfffd6ae0>
   43720:	d8c02e17 	ldw	r3,184(sp)
   43724:	d9002e17 	ldw	r4,184(sp)
   43728:	8025883a 	mov	r18,r16
   4372c:	18800017 	ldw	r2,0(r3)
   43730:	21000104 	addi	r4,r4,4
   43734:	00c00044 	movi	r3,1
   43738:	e011883a 	mov	r8,fp
   4373c:	d8c02915 	stw	r3,164(sp)
   43740:	d8002785 	stb	zero,158(sp)
   43744:	d8801405 	stb	r2,80(sp)
   43748:	d9002e15 	stw	r4,184(sp)
   4374c:	d8c02b15 	stw	r3,172(sp)
   43750:	d8002a15 	stw	zero,168(sp)
   43754:	d8003215 	stw	zero,200(sp)
   43758:	dc001404 	addi	r16,sp,80
   4375c:	0039883a 	mov	fp,zero
   43760:	003e5306 	br	430b0 <__alt_data_end+0xfffd7190>
   43764:	01000174 	movhi	r4,5
   43768:	21020204 	addi	r4,r4,2056
   4376c:	0039883a 	mov	fp,zero
   43770:	d9003915 	stw	r4,228(sp)
   43774:	04401e04 	movi	r17,120
   43778:	003f6906 	br	43520 <__alt_data_end+0xfffd7600>
   4377c:	8025883a 	mov	r18,r16
   43780:	dc002903 	ldbu	r16,164(sp)
   43784:	e011883a 	mov	r8,fp
   43788:	84003fcc 	andi	r16,r16,255
   4378c:	8005081e 	bne	r16,zero,44bb0 <___vfprintf_internal_r+0x2290>
   43790:	883d6126 	beq	r17,zero,42d18 <__alt_data_end+0xfffd6df8>
   43794:	00c00044 	movi	r3,1
   43798:	d8c02915 	stw	r3,164(sp)
   4379c:	dc401405 	stb	r17,80(sp)
   437a0:	d8002785 	stb	zero,158(sp)
   437a4:	003fe906 	br	4374c <__alt_data_end+0xfffd782c>
   437a8:	01400174 	movhi	r5,5
   437ac:	29420204 	addi	r5,r5,2056
   437b0:	d9403915 	stw	r5,228(sp)
   437b4:	d8c02e15 	stw	r3,184(sp)
   437b8:	1025883a 	mov	r18,r2
   437bc:	04401e04 	movi	r17,120
   437c0:	9d84b03a 	or	r2,r19,r22
   437c4:	1000fc1e 	bne	r2,zero,43bb8 <___vfprintf_internal_r+0x1298>
   437c8:	0039883a 	mov	fp,zero
   437cc:	00800084 	movi	r2,2
   437d0:	10803fcc 	andi	r2,r2,255
   437d4:	00c00044 	movi	r3,1
   437d8:	10c20f26 	beq	r2,r3,44018 <___vfprintf_internal_r+0x16f8>
   437dc:	00c00084 	movi	r3,2
   437e0:	10fd3326 	beq	r2,r3,42cb0 <__alt_data_end+0xfffd6d90>
   437e4:	003e0b06 	br	43014 <__alt_data_end+0xfffd70f4>
   437e8:	d8c02017 	ldw	r3,128(sp)
   437ec:	003e7106 	br	431b4 <__alt_data_end+0xfffd7294>
   437f0:	00801944 	movi	r2,101
   437f4:	14407e0e 	bge	r2,r17,439f0 <___vfprintf_internal_r+0x10d0>
   437f8:	d9003617 	ldw	r4,216(sp)
   437fc:	d9403817 	ldw	r5,224(sp)
   43800:	000d883a 	mov	r6,zero
   43804:	000f883a 	mov	r7,zero
   43808:	d8c03c15 	stw	r3,240(sp)
   4380c:	da003d15 	stw	r8,244(sp)
   43810:	004c7180 	call	4c718 <__eqdf2>
   43814:	d8c03c17 	ldw	r3,240(sp)
   43818:	da003d17 	ldw	r8,244(sp)
   4381c:	1000f71e 	bne	r2,zero,43bfc <___vfprintf_internal_r+0x12dc>
   43820:	d8801f17 	ldw	r2,124(sp)
   43824:	01000174 	movhi	r4,5
   43828:	21020904 	addi	r4,r4,2084
   4382c:	18c00044 	addi	r3,r3,1
   43830:	10800044 	addi	r2,r2,1
   43834:	41000015 	stw	r4,0(r8)
   43838:	01000044 	movi	r4,1
   4383c:	41000115 	stw	r4,4(r8)
   43840:	d8c02015 	stw	r3,128(sp)
   43844:	d8801f15 	stw	r2,124(sp)
   43848:	010001c4 	movi	r4,7
   4384c:	2082b816 	blt	r4,r2,44330 <___vfprintf_internal_r+0x1a10>
   43850:	42000204 	addi	r8,r8,8
   43854:	d8802617 	ldw	r2,152(sp)
   43858:	d9403317 	ldw	r5,204(sp)
   4385c:	11400216 	blt	r2,r5,43868 <___vfprintf_internal_r+0xf48>
   43860:	9080004c 	andi	r2,r18,1
   43864:	103eb326 	beq	r2,zero,43334 <__alt_data_end+0xfffd7414>
   43868:	d8803717 	ldw	r2,220(sp)
   4386c:	d9003417 	ldw	r4,208(sp)
   43870:	d9403717 	ldw	r5,220(sp)
   43874:	1887883a 	add	r3,r3,r2
   43878:	d8801f17 	ldw	r2,124(sp)
   4387c:	41000015 	stw	r4,0(r8)
   43880:	41400115 	stw	r5,4(r8)
   43884:	10800044 	addi	r2,r2,1
   43888:	d8c02015 	stw	r3,128(sp)
   4388c:	d8801f15 	stw	r2,124(sp)
   43890:	010001c4 	movi	r4,7
   43894:	20832916 	blt	r4,r2,4453c <___vfprintf_internal_r+0x1c1c>
   43898:	42000204 	addi	r8,r8,8
   4389c:	d8803317 	ldw	r2,204(sp)
   438a0:	143fffc4 	addi	r16,r2,-1
   438a4:	043ea30e 	bge	zero,r16,43334 <__alt_data_end+0xfffd7414>
   438a8:	04400404 	movi	r17,16
   438ac:	d8801f17 	ldw	r2,124(sp)
   438b0:	8c00880e 	bge	r17,r16,43ad4 <___vfprintf_internal_r+0x11b4>
   438b4:	01400174 	movhi	r5,5
   438b8:	29420984 	addi	r5,r5,2086
   438bc:	d9402c15 	stw	r5,176(sp)
   438c0:	058001c4 	movi	r22,7
   438c4:	dcc02d17 	ldw	r19,180(sp)
   438c8:	00000306 	br	438d8 <___vfprintf_internal_r+0xfb8>
   438cc:	42000204 	addi	r8,r8,8
   438d0:	843ffc04 	addi	r16,r16,-16
   438d4:	8c00820e 	bge	r17,r16,43ae0 <___vfprintf_internal_r+0x11c0>
   438d8:	18c00404 	addi	r3,r3,16
   438dc:	10800044 	addi	r2,r2,1
   438e0:	45000015 	stw	r20,0(r8)
   438e4:	44400115 	stw	r17,4(r8)
   438e8:	d8c02015 	stw	r3,128(sp)
   438ec:	d8801f15 	stw	r2,124(sp)
   438f0:	b0bff60e 	bge	r22,r2,438cc <__alt_data_end+0xfffd79ac>
   438f4:	d9801e04 	addi	r6,sp,120
   438f8:	b80b883a 	mov	r5,r23
   438fc:	9809883a 	mov	r4,r19
   43900:	0048ae00 	call	48ae0 <__sprint_r>
   43904:	103d0a1e 	bne	r2,zero,42d30 <__alt_data_end+0xfffd6e10>
   43908:	d8c02017 	ldw	r3,128(sp)
   4390c:	d8801f17 	ldw	r2,124(sp)
   43910:	da000404 	addi	r8,sp,16
   43914:	003fee06 	br	438d0 <__alt_data_end+0xfffd79b0>
   43918:	d9403117 	ldw	r5,196(sp)
   4391c:	d8802917 	ldw	r2,164(sp)
   43920:	28adc83a 	sub	r22,r5,r2
   43924:	05be410e 	bge	zero,r22,4322c <__alt_data_end+0xfffd730c>
   43928:	07000404 	movi	fp,16
   4392c:	d8801f17 	ldw	r2,124(sp)
   43930:	e5838f0e 	bge	fp,r22,44770 <___vfprintf_internal_r+0x1e50>
   43934:	01400174 	movhi	r5,5
   43938:	29420984 	addi	r5,r5,2086
   4393c:	dc403015 	stw	r17,192(sp)
   43940:	d9402c15 	stw	r5,176(sp)
   43944:	b023883a 	mov	r17,r22
   43948:	04c001c4 	movi	r19,7
   4394c:	a82d883a 	mov	r22,r21
   43950:	902b883a 	mov	r21,r18
   43954:	8025883a 	mov	r18,r16
   43958:	dc002d17 	ldw	r16,180(sp)
   4395c:	00000306 	br	4396c <___vfprintf_internal_r+0x104c>
   43960:	8c7ffc04 	addi	r17,r17,-16
   43964:	42000204 	addi	r8,r8,8
   43968:	e440110e 	bge	fp,r17,439b0 <___vfprintf_internal_r+0x1090>
   4396c:	18c00404 	addi	r3,r3,16
   43970:	10800044 	addi	r2,r2,1
   43974:	45000015 	stw	r20,0(r8)
   43978:	47000115 	stw	fp,4(r8)
   4397c:	d8c02015 	stw	r3,128(sp)
   43980:	d8801f15 	stw	r2,124(sp)
   43984:	98bff60e 	bge	r19,r2,43960 <__alt_data_end+0xfffd7a40>
   43988:	d9801e04 	addi	r6,sp,120
   4398c:	b80b883a 	mov	r5,r23
   43990:	8009883a 	mov	r4,r16
   43994:	0048ae00 	call	48ae0 <__sprint_r>
   43998:	103ce51e 	bne	r2,zero,42d30 <__alt_data_end+0xfffd6e10>
   4399c:	8c7ffc04 	addi	r17,r17,-16
   439a0:	d8c02017 	ldw	r3,128(sp)
   439a4:	d8801f17 	ldw	r2,124(sp)
   439a8:	da000404 	addi	r8,sp,16
   439ac:	e47fef16 	blt	fp,r17,4396c <__alt_data_end+0xfffd7a4c>
   439b0:	9021883a 	mov	r16,r18
   439b4:	a825883a 	mov	r18,r21
   439b8:	b02b883a 	mov	r21,r22
   439bc:	882d883a 	mov	r22,r17
   439c0:	dc403017 	ldw	r17,192(sp)
   439c4:	d9002c17 	ldw	r4,176(sp)
   439c8:	1d87883a 	add	r3,r3,r22
   439cc:	10800044 	addi	r2,r2,1
   439d0:	41000015 	stw	r4,0(r8)
   439d4:	45800115 	stw	r22,4(r8)
   439d8:	d8c02015 	stw	r3,128(sp)
   439dc:	d8801f15 	stw	r2,124(sp)
   439e0:	010001c4 	movi	r4,7
   439e4:	20818e16 	blt	r4,r2,44020 <___vfprintf_internal_r+0x1700>
   439e8:	42000204 	addi	r8,r8,8
   439ec:	003e0f06 	br	4322c <__alt_data_end+0xfffd730c>
   439f0:	d9403317 	ldw	r5,204(sp)
   439f4:	00800044 	movi	r2,1
   439f8:	18c00044 	addi	r3,r3,1
   439fc:	1141530e 	bge	r2,r5,43f4c <___vfprintf_internal_r+0x162c>
   43a00:	dc401f17 	ldw	r17,124(sp)
   43a04:	00800044 	movi	r2,1
   43a08:	40800115 	stw	r2,4(r8)
   43a0c:	8c400044 	addi	r17,r17,1
   43a10:	44000015 	stw	r16,0(r8)
   43a14:	d8c02015 	stw	r3,128(sp)
   43a18:	dc401f15 	stw	r17,124(sp)
   43a1c:	008001c4 	movi	r2,7
   43a20:	14416b16 	blt	r2,r17,43fd0 <___vfprintf_internal_r+0x16b0>
   43a24:	42000204 	addi	r8,r8,8
   43a28:	d8803717 	ldw	r2,220(sp)
   43a2c:	d9003417 	ldw	r4,208(sp)
   43a30:	8c400044 	addi	r17,r17,1
   43a34:	10c7883a 	add	r3,r2,r3
   43a38:	40800115 	stw	r2,4(r8)
   43a3c:	41000015 	stw	r4,0(r8)
   43a40:	d8c02015 	stw	r3,128(sp)
   43a44:	dc401f15 	stw	r17,124(sp)
   43a48:	008001c4 	movi	r2,7
   43a4c:	14416916 	blt	r2,r17,43ff4 <___vfprintf_internal_r+0x16d4>
   43a50:	45800204 	addi	r22,r8,8
   43a54:	d9003617 	ldw	r4,216(sp)
   43a58:	d9403817 	ldw	r5,224(sp)
   43a5c:	000d883a 	mov	r6,zero
   43a60:	000f883a 	mov	r7,zero
   43a64:	d8c03c15 	stw	r3,240(sp)
   43a68:	004c7180 	call	4c718 <__eqdf2>
   43a6c:	d8c03c17 	ldw	r3,240(sp)
   43a70:	1000bc26 	beq	r2,zero,43d64 <___vfprintf_internal_r+0x1444>
   43a74:	d9403317 	ldw	r5,204(sp)
   43a78:	84000044 	addi	r16,r16,1
   43a7c:	8c400044 	addi	r17,r17,1
   43a80:	28bfffc4 	addi	r2,r5,-1
   43a84:	1887883a 	add	r3,r3,r2
   43a88:	b0800115 	stw	r2,4(r22)
   43a8c:	b4000015 	stw	r16,0(r22)
   43a90:	d8c02015 	stw	r3,128(sp)
   43a94:	dc401f15 	stw	r17,124(sp)
   43a98:	008001c4 	movi	r2,7
   43a9c:	14414316 	blt	r2,r17,43fac <___vfprintf_internal_r+0x168c>
   43aa0:	b5800204 	addi	r22,r22,8
   43aa4:	d9003a17 	ldw	r4,232(sp)
   43aa8:	df0022c4 	addi	fp,sp,139
   43aac:	8c400044 	addi	r17,r17,1
   43ab0:	20c7883a 	add	r3,r4,r3
   43ab4:	b7000015 	stw	fp,0(r22)
   43ab8:	b1000115 	stw	r4,4(r22)
   43abc:	d8c02015 	stw	r3,128(sp)
   43ac0:	dc401f15 	stw	r17,124(sp)
   43ac4:	008001c4 	movi	r2,7
   43ac8:	14400e16 	blt	r2,r17,43b04 <___vfprintf_internal_r+0x11e4>
   43acc:	b2000204 	addi	r8,r22,8
   43ad0:	003e1806 	br	43334 <__alt_data_end+0xfffd7414>
   43ad4:	01000174 	movhi	r4,5
   43ad8:	21020984 	addi	r4,r4,2086
   43adc:	d9002c15 	stw	r4,176(sp)
   43ae0:	d9002c17 	ldw	r4,176(sp)
   43ae4:	1c07883a 	add	r3,r3,r16
   43ae8:	44000115 	stw	r16,4(r8)
   43aec:	41000015 	stw	r4,0(r8)
   43af0:	10800044 	addi	r2,r2,1
   43af4:	d8c02015 	stw	r3,128(sp)
   43af8:	d8801f15 	stw	r2,124(sp)
   43afc:	010001c4 	movi	r4,7
   43b00:	20be0b0e 	bge	r4,r2,43330 <__alt_data_end+0xfffd7410>
   43b04:	d9002d17 	ldw	r4,180(sp)
   43b08:	d9801e04 	addi	r6,sp,120
   43b0c:	b80b883a 	mov	r5,r23
   43b10:	0048ae00 	call	48ae0 <__sprint_r>
   43b14:	103c861e 	bne	r2,zero,42d30 <__alt_data_end+0xfffd6e10>
   43b18:	d8c02017 	ldw	r3,128(sp)
   43b1c:	da000404 	addi	r8,sp,16
   43b20:	003e0406 	br	43334 <__alt_data_end+0xfffd7414>
   43b24:	d9002d17 	ldw	r4,180(sp)
   43b28:	d9801e04 	addi	r6,sp,120
   43b2c:	b80b883a 	mov	r5,r23
   43b30:	0048ae00 	call	48ae0 <__sprint_r>
   43b34:	103e3b26 	beq	r2,zero,43424 <__alt_data_end+0xfffd7504>
   43b38:	003c7d06 	br	42d30 <__alt_data_end+0xfffd6e10>
   43b3c:	d9002d17 	ldw	r4,180(sp)
   43b40:	d9801e04 	addi	r6,sp,120
   43b44:	b80b883a 	mov	r5,r23
   43b48:	0048ae00 	call	48ae0 <__sprint_r>
   43b4c:	103c781e 	bne	r2,zero,42d30 <__alt_data_end+0xfffd6e10>
   43b50:	d8c02017 	ldw	r3,128(sp)
   43b54:	da000404 	addi	r8,sp,16
   43b58:	003de906 	br	43300 <__alt_data_end+0xfffd73e0>
   43b5c:	d9002d17 	ldw	r4,180(sp)
   43b60:	d9801e04 	addi	r6,sp,120
   43b64:	b80b883a 	mov	r5,r23
   43b68:	0048ae00 	call	48ae0 <__sprint_r>
   43b6c:	103c701e 	bne	r2,zero,42d30 <__alt_data_end+0xfffd6e10>
   43b70:	d8c02017 	ldw	r3,128(sp)
   43b74:	da000404 	addi	r8,sp,16
   43b78:	003d9b06 	br	431e8 <__alt_data_end+0xfffd72c8>
   43b7c:	d9002d17 	ldw	r4,180(sp)
   43b80:	d9801e04 	addi	r6,sp,120
   43b84:	b80b883a 	mov	r5,r23
   43b88:	0048ae00 	call	48ae0 <__sprint_r>
   43b8c:	103c681e 	bne	r2,zero,42d30 <__alt_data_end+0xfffd6e10>
   43b90:	d8c02017 	ldw	r3,128(sp)
   43b94:	da000404 	addi	r8,sp,16
   43b98:	003da106 	br	43220 <__alt_data_end+0xfffd7300>
   43b9c:	d9402a17 	ldw	r5,168(sp)
   43ba0:	d8002785 	stb	zero,158(sp)
   43ba4:	283f0616 	blt	r5,zero,437c0 <__alt_data_end+0xfffd78a0>
   43ba8:	00ffdfc4 	movi	r3,-129
   43bac:	9d84b03a 	or	r2,r19,r22
   43bb0:	90e4703a 	and	r18,r18,r3
   43bb4:	103c3b26 	beq	r2,zero,42ca4 <__alt_data_end+0xfffd6d84>
   43bb8:	0039883a 	mov	fp,zero
   43bbc:	003e5806 	br	43520 <__alt_data_end+0xfffd7600>
   43bc0:	9080040c 	andi	r2,r18,16
   43bc4:	1001b326 	beq	r2,zero,44294 <___vfprintf_internal_r+0x1974>
   43bc8:	d8c02e17 	ldw	r3,184(sp)
   43bcc:	d9002a17 	ldw	r4,168(sp)
   43bd0:	d8002785 	stb	zero,158(sp)
   43bd4:	18800104 	addi	r2,r3,4
   43bd8:	1cc00017 	ldw	r19,0(r3)
   43bdc:	002d883a 	mov	r22,zero
   43be0:	2001b516 	blt	r4,zero,442b8 <___vfprintf_internal_r+0x1998>
   43be4:	00ffdfc4 	movi	r3,-129
   43be8:	d8802e15 	stw	r2,184(sp)
   43bec:	90e4703a 	and	r18,r18,r3
   43bf0:	983d0526 	beq	r19,zero,43008 <__alt_data_end+0xfffd70e8>
   43bf4:	0039883a 	mov	fp,zero
   43bf8:	003d0806 	br	4301c <__alt_data_end+0xfffd70fc>
   43bfc:	dc402617 	ldw	r17,152(sp)
   43c00:	0441d30e 	bge	zero,r17,44350 <___vfprintf_internal_r+0x1a30>
   43c04:	dc403217 	ldw	r17,200(sp)
   43c08:	d8803317 	ldw	r2,204(sp)
   43c0c:	1440010e 	bge	r2,r17,43c14 <___vfprintf_internal_r+0x12f4>
   43c10:	1023883a 	mov	r17,r2
   43c14:	04400a0e 	bge	zero,r17,43c40 <___vfprintf_internal_r+0x1320>
   43c18:	d8801f17 	ldw	r2,124(sp)
   43c1c:	1c47883a 	add	r3,r3,r17
   43c20:	44000015 	stw	r16,0(r8)
   43c24:	10800044 	addi	r2,r2,1
   43c28:	44400115 	stw	r17,4(r8)
   43c2c:	d8c02015 	stw	r3,128(sp)
   43c30:	d8801f15 	stw	r2,124(sp)
   43c34:	010001c4 	movi	r4,7
   43c38:	20826516 	blt	r4,r2,445d0 <___vfprintf_internal_r+0x1cb0>
   43c3c:	42000204 	addi	r8,r8,8
   43c40:	88026116 	blt	r17,zero,445c8 <___vfprintf_internal_r+0x1ca8>
   43c44:	d9003217 	ldw	r4,200(sp)
   43c48:	2463c83a 	sub	r17,r4,r17
   43c4c:	04407b0e 	bge	zero,r17,43e3c <___vfprintf_internal_r+0x151c>
   43c50:	05800404 	movi	r22,16
   43c54:	d8801f17 	ldw	r2,124(sp)
   43c58:	b4419d0e 	bge	r22,r17,442d0 <___vfprintf_internal_r+0x19b0>
   43c5c:	01000174 	movhi	r4,5
   43c60:	21020984 	addi	r4,r4,2086
   43c64:	d9002c15 	stw	r4,176(sp)
   43c68:	070001c4 	movi	fp,7
   43c6c:	dcc02d17 	ldw	r19,180(sp)
   43c70:	00000306 	br	43c80 <___vfprintf_internal_r+0x1360>
   43c74:	42000204 	addi	r8,r8,8
   43c78:	8c7ffc04 	addi	r17,r17,-16
   43c7c:	b441970e 	bge	r22,r17,442dc <___vfprintf_internal_r+0x19bc>
   43c80:	18c00404 	addi	r3,r3,16
   43c84:	10800044 	addi	r2,r2,1
   43c88:	45000015 	stw	r20,0(r8)
   43c8c:	45800115 	stw	r22,4(r8)
   43c90:	d8c02015 	stw	r3,128(sp)
   43c94:	d8801f15 	stw	r2,124(sp)
   43c98:	e0bff60e 	bge	fp,r2,43c74 <__alt_data_end+0xfffd7d54>
   43c9c:	d9801e04 	addi	r6,sp,120
   43ca0:	b80b883a 	mov	r5,r23
   43ca4:	9809883a 	mov	r4,r19
   43ca8:	0048ae00 	call	48ae0 <__sprint_r>
   43cac:	103c201e 	bne	r2,zero,42d30 <__alt_data_end+0xfffd6e10>
   43cb0:	d8c02017 	ldw	r3,128(sp)
   43cb4:	d8801f17 	ldw	r2,124(sp)
   43cb8:	da000404 	addi	r8,sp,16
   43cbc:	003fee06 	br	43c78 <__alt_data_end+0xfffd7d58>
   43cc0:	d9002d17 	ldw	r4,180(sp)
   43cc4:	d9801e04 	addi	r6,sp,120
   43cc8:	b80b883a 	mov	r5,r23
   43ccc:	0048ae00 	call	48ae0 <__sprint_r>
   43cd0:	103c171e 	bne	r2,zero,42d30 <__alt_data_end+0xfffd6e10>
   43cd4:	d8c02017 	ldw	r3,128(sp)
   43cd8:	df002787 	ldb	fp,158(sp)
   43cdc:	da000404 	addi	r8,sp,16
   43ce0:	003d3406 	br	431b4 <__alt_data_end+0xfffd7294>
   43ce4:	9080040c 	andi	r2,r18,16
   43ce8:	10016126 	beq	r2,zero,44270 <___vfprintf_internal_r+0x1950>
   43cec:	d9402e17 	ldw	r5,184(sp)
   43cf0:	2cc00017 	ldw	r19,0(r5)
   43cf4:	29400104 	addi	r5,r5,4
   43cf8:	d9402e15 	stw	r5,184(sp)
   43cfc:	982dd7fa 	srai	r22,r19,31
   43d00:	b005883a 	mov	r2,r22
   43d04:	003c5a06 	br	42e70 <__alt_data_end+0xfffd6f50>
   43d08:	9080040c 	andi	r2,r18,16
   43d0c:	10003526 	beq	r2,zero,43de4 <___vfprintf_internal_r+0x14c4>
   43d10:	d8c02e17 	ldw	r3,184(sp)
   43d14:	d9002a17 	ldw	r4,168(sp)
   43d18:	d8002785 	stb	zero,158(sp)
   43d1c:	18800104 	addi	r2,r3,4
   43d20:	1cc00017 	ldw	r19,0(r3)
   43d24:	002d883a 	mov	r22,zero
   43d28:	20003716 	blt	r4,zero,43e08 <___vfprintf_internal_r+0x14e8>
   43d2c:	00ffdfc4 	movi	r3,-129
   43d30:	d8802e15 	stw	r2,184(sp)
   43d34:	90e4703a 	and	r18,r18,r3
   43d38:	0039883a 	mov	fp,zero
   43d3c:	983dd426 	beq	r19,zero,43490 <__alt_data_end+0xfffd7570>
   43d40:	00800244 	movi	r2,9
   43d44:	14fc5336 	bltu	r2,r19,42e94 <__alt_data_end+0xfffd6f74>
   43d48:	d8c02817 	ldw	r3,160(sp)
   43d4c:	dc001dc4 	addi	r16,sp,119
   43d50:	9cc00c04 	addi	r19,r19,48
   43d54:	1c07c83a 	sub	r3,r3,r16
   43d58:	dcc01dc5 	stb	r19,119(sp)
   43d5c:	d8c02b15 	stw	r3,172(sp)
   43d60:	003cc606 	br	4307c <__alt_data_end+0xfffd715c>
   43d64:	d8803317 	ldw	r2,204(sp)
   43d68:	143fffc4 	addi	r16,r2,-1
   43d6c:	043f4d0e 	bge	zero,r16,43aa4 <__alt_data_end+0xfffd7b84>
   43d70:	07000404 	movi	fp,16
   43d74:	e400810e 	bge	fp,r16,43f7c <___vfprintf_internal_r+0x165c>
   43d78:	01400174 	movhi	r5,5
   43d7c:	29420984 	addi	r5,r5,2086
   43d80:	d9402c15 	stw	r5,176(sp)
   43d84:	01c001c4 	movi	r7,7
   43d88:	dcc02d17 	ldw	r19,180(sp)
   43d8c:	00000306 	br	43d9c <___vfprintf_internal_r+0x147c>
   43d90:	b5800204 	addi	r22,r22,8
   43d94:	843ffc04 	addi	r16,r16,-16
   43d98:	e4007b0e 	bge	fp,r16,43f88 <___vfprintf_internal_r+0x1668>
   43d9c:	18c00404 	addi	r3,r3,16
   43da0:	8c400044 	addi	r17,r17,1
   43da4:	b5000015 	stw	r20,0(r22)
   43da8:	b7000115 	stw	fp,4(r22)
   43dac:	d8c02015 	stw	r3,128(sp)
   43db0:	dc401f15 	stw	r17,124(sp)
   43db4:	3c7ff60e 	bge	r7,r17,43d90 <__alt_data_end+0xfffd7e70>
   43db8:	d9801e04 	addi	r6,sp,120
   43dbc:	b80b883a 	mov	r5,r23
   43dc0:	9809883a 	mov	r4,r19
   43dc4:	d9c03c15 	stw	r7,240(sp)
   43dc8:	0048ae00 	call	48ae0 <__sprint_r>
   43dcc:	d9c03c17 	ldw	r7,240(sp)
   43dd0:	103bd71e 	bne	r2,zero,42d30 <__alt_data_end+0xfffd6e10>
   43dd4:	d8c02017 	ldw	r3,128(sp)
   43dd8:	dc401f17 	ldw	r17,124(sp)
   43ddc:	dd800404 	addi	r22,sp,16
   43de0:	003fec06 	br	43d94 <__alt_data_end+0xfffd7e74>
   43de4:	9080100c 	andi	r2,r18,64
   43de8:	d8002785 	stb	zero,158(sp)
   43dec:	10010e26 	beq	r2,zero,44228 <___vfprintf_internal_r+0x1908>
   43df0:	d9402e17 	ldw	r5,184(sp)
   43df4:	d8c02a17 	ldw	r3,168(sp)
   43df8:	002d883a 	mov	r22,zero
   43dfc:	28800104 	addi	r2,r5,4
   43e00:	2cc0000b 	ldhu	r19,0(r5)
   43e04:	183fc90e 	bge	r3,zero,43d2c <__alt_data_end+0xfffd7e0c>
   43e08:	d8802e15 	stw	r2,184(sp)
   43e0c:	0039883a 	mov	fp,zero
   43e10:	9d84b03a 	or	r2,r19,r22
   43e14:	103c1e1e 	bne	r2,zero,42e90 <__alt_data_end+0xfffd6f70>
   43e18:	00800044 	movi	r2,1
   43e1c:	003e6c06 	br	437d0 <__alt_data_end+0xfffd78b0>
   43e20:	d9002d17 	ldw	r4,180(sp)
   43e24:	d9801e04 	addi	r6,sp,120
   43e28:	b80b883a 	mov	r5,r23
   43e2c:	0048ae00 	call	48ae0 <__sprint_r>
   43e30:	103bbf1e 	bne	r2,zero,42d30 <__alt_data_end+0xfffd6e10>
   43e34:	d8c02017 	ldw	r3,128(sp)
   43e38:	da000404 	addi	r8,sp,16
   43e3c:	d9003217 	ldw	r4,200(sp)
   43e40:	d8802617 	ldw	r2,152(sp)
   43e44:	d9403317 	ldw	r5,204(sp)
   43e48:	8123883a 	add	r17,r16,r4
   43e4c:	11400216 	blt	r2,r5,43e58 <___vfprintf_internal_r+0x1538>
   43e50:	9100004c 	andi	r4,r18,1
   43e54:	20000d26 	beq	r4,zero,43e8c <___vfprintf_internal_r+0x156c>
   43e58:	d9003717 	ldw	r4,220(sp)
   43e5c:	d9403417 	ldw	r5,208(sp)
   43e60:	1907883a 	add	r3,r3,r4
   43e64:	d9001f17 	ldw	r4,124(sp)
   43e68:	41400015 	stw	r5,0(r8)
   43e6c:	d9403717 	ldw	r5,220(sp)
   43e70:	21000044 	addi	r4,r4,1
   43e74:	d8c02015 	stw	r3,128(sp)
   43e78:	41400115 	stw	r5,4(r8)
   43e7c:	d9001f15 	stw	r4,124(sp)
   43e80:	014001c4 	movi	r5,7
   43e84:	2901e816 	blt	r5,r4,44628 <___vfprintf_internal_r+0x1d08>
   43e88:	42000204 	addi	r8,r8,8
   43e8c:	d9003317 	ldw	r4,204(sp)
   43e90:	8121883a 	add	r16,r16,r4
   43e94:	2085c83a 	sub	r2,r4,r2
   43e98:	8461c83a 	sub	r16,r16,r17
   43e9c:	1400010e 	bge	r2,r16,43ea4 <___vfprintf_internal_r+0x1584>
   43ea0:	1021883a 	mov	r16,r2
   43ea4:	04000a0e 	bge	zero,r16,43ed0 <___vfprintf_internal_r+0x15b0>
   43ea8:	d9001f17 	ldw	r4,124(sp)
   43eac:	1c07883a 	add	r3,r3,r16
   43eb0:	44400015 	stw	r17,0(r8)
   43eb4:	21000044 	addi	r4,r4,1
   43eb8:	44000115 	stw	r16,4(r8)
   43ebc:	d8c02015 	stw	r3,128(sp)
   43ec0:	d9001f15 	stw	r4,124(sp)
   43ec4:	014001c4 	movi	r5,7
   43ec8:	2901fb16 	blt	r5,r4,446b8 <___vfprintf_internal_r+0x1d98>
   43ecc:	42000204 	addi	r8,r8,8
   43ed0:	8001f716 	blt	r16,zero,446b0 <___vfprintf_internal_r+0x1d90>
   43ed4:	1421c83a 	sub	r16,r2,r16
   43ed8:	043d160e 	bge	zero,r16,43334 <__alt_data_end+0xfffd7414>
   43edc:	04400404 	movi	r17,16
   43ee0:	d8801f17 	ldw	r2,124(sp)
   43ee4:	8c3efb0e 	bge	r17,r16,43ad4 <__alt_data_end+0xfffd7bb4>
   43ee8:	01400174 	movhi	r5,5
   43eec:	29420984 	addi	r5,r5,2086
   43ef0:	d9402c15 	stw	r5,176(sp)
   43ef4:	058001c4 	movi	r22,7
   43ef8:	dcc02d17 	ldw	r19,180(sp)
   43efc:	00000306 	br	43f0c <___vfprintf_internal_r+0x15ec>
   43f00:	42000204 	addi	r8,r8,8
   43f04:	843ffc04 	addi	r16,r16,-16
   43f08:	8c3ef50e 	bge	r17,r16,43ae0 <__alt_data_end+0xfffd7bc0>
   43f0c:	18c00404 	addi	r3,r3,16
   43f10:	10800044 	addi	r2,r2,1
   43f14:	45000015 	stw	r20,0(r8)
   43f18:	44400115 	stw	r17,4(r8)
   43f1c:	d8c02015 	stw	r3,128(sp)
   43f20:	d8801f15 	stw	r2,124(sp)
   43f24:	b0bff60e 	bge	r22,r2,43f00 <__alt_data_end+0xfffd7fe0>
   43f28:	d9801e04 	addi	r6,sp,120
   43f2c:	b80b883a 	mov	r5,r23
   43f30:	9809883a 	mov	r4,r19
   43f34:	0048ae00 	call	48ae0 <__sprint_r>
   43f38:	103b7d1e 	bne	r2,zero,42d30 <__alt_data_end+0xfffd6e10>
   43f3c:	d8c02017 	ldw	r3,128(sp)
   43f40:	d8801f17 	ldw	r2,124(sp)
   43f44:	da000404 	addi	r8,sp,16
   43f48:	003fee06 	br	43f04 <__alt_data_end+0xfffd7fe4>
   43f4c:	9088703a 	and	r4,r18,r2
   43f50:	203eab1e 	bne	r4,zero,43a00 <__alt_data_end+0xfffd7ae0>
   43f54:	dc401f17 	ldw	r17,124(sp)
   43f58:	40800115 	stw	r2,4(r8)
   43f5c:	44000015 	stw	r16,0(r8)
   43f60:	8c400044 	addi	r17,r17,1
   43f64:	d8c02015 	stw	r3,128(sp)
   43f68:	dc401f15 	stw	r17,124(sp)
   43f6c:	008001c4 	movi	r2,7
   43f70:	14400e16 	blt	r2,r17,43fac <___vfprintf_internal_r+0x168c>
   43f74:	45800204 	addi	r22,r8,8
   43f78:	003eca06 	br	43aa4 <__alt_data_end+0xfffd7b84>
   43f7c:	01000174 	movhi	r4,5
   43f80:	21020984 	addi	r4,r4,2086
   43f84:	d9002c15 	stw	r4,176(sp)
   43f88:	d8802c17 	ldw	r2,176(sp)
   43f8c:	1c07883a 	add	r3,r3,r16
   43f90:	8c400044 	addi	r17,r17,1
   43f94:	b0800015 	stw	r2,0(r22)
   43f98:	b4000115 	stw	r16,4(r22)
   43f9c:	d8c02015 	stw	r3,128(sp)
   43fa0:	dc401f15 	stw	r17,124(sp)
   43fa4:	008001c4 	movi	r2,7
   43fa8:	147ebd0e 	bge	r2,r17,43aa0 <__alt_data_end+0xfffd7b80>
   43fac:	d9002d17 	ldw	r4,180(sp)
   43fb0:	d9801e04 	addi	r6,sp,120
   43fb4:	b80b883a 	mov	r5,r23
   43fb8:	0048ae00 	call	48ae0 <__sprint_r>
   43fbc:	103b5c1e 	bne	r2,zero,42d30 <__alt_data_end+0xfffd6e10>
   43fc0:	d8c02017 	ldw	r3,128(sp)
   43fc4:	dc401f17 	ldw	r17,124(sp)
   43fc8:	dd800404 	addi	r22,sp,16
   43fcc:	003eb506 	br	43aa4 <__alt_data_end+0xfffd7b84>
   43fd0:	d9002d17 	ldw	r4,180(sp)
   43fd4:	d9801e04 	addi	r6,sp,120
   43fd8:	b80b883a 	mov	r5,r23
   43fdc:	0048ae00 	call	48ae0 <__sprint_r>
   43fe0:	103b531e 	bne	r2,zero,42d30 <__alt_data_end+0xfffd6e10>
   43fe4:	d8c02017 	ldw	r3,128(sp)
   43fe8:	dc401f17 	ldw	r17,124(sp)
   43fec:	da000404 	addi	r8,sp,16
   43ff0:	003e8d06 	br	43a28 <__alt_data_end+0xfffd7b08>
   43ff4:	d9002d17 	ldw	r4,180(sp)
   43ff8:	d9801e04 	addi	r6,sp,120
   43ffc:	b80b883a 	mov	r5,r23
   44000:	0048ae00 	call	48ae0 <__sprint_r>
   44004:	103b4a1e 	bne	r2,zero,42d30 <__alt_data_end+0xfffd6e10>
   44008:	d8c02017 	ldw	r3,128(sp)
   4400c:	dc401f17 	ldw	r17,124(sp)
   44010:	dd800404 	addi	r22,sp,16
   44014:	003e8f06 	br	43a54 <__alt_data_end+0xfffd7b34>
   44018:	0027883a 	mov	r19,zero
   4401c:	003f4a06 	br	43d48 <__alt_data_end+0xfffd7e28>
   44020:	d9002d17 	ldw	r4,180(sp)
   44024:	d9801e04 	addi	r6,sp,120
   44028:	b80b883a 	mov	r5,r23
   4402c:	0048ae00 	call	48ae0 <__sprint_r>
   44030:	103b3f1e 	bne	r2,zero,42d30 <__alt_data_end+0xfffd6e10>
   44034:	d8c02017 	ldw	r3,128(sp)
   44038:	da000404 	addi	r8,sp,16
   4403c:	003c7b06 	br	4322c <__alt_data_end+0xfffd730c>
   44040:	d9402a17 	ldw	r5,168(sp)
   44044:	04e7c83a 	sub	r19,zero,r19
   44048:	07000b44 	movi	fp,45
   4404c:	9804c03a 	cmpne	r2,r19,zero
   44050:	05adc83a 	sub	r22,zero,r22
   44054:	df002785 	stb	fp,158(sp)
   44058:	b0adc83a 	sub	r22,r22,r2
   4405c:	28017b16 	blt	r5,zero,4464c <___vfprintf_internal_r+0x1d2c>
   44060:	00bfdfc4 	movi	r2,-129
   44064:	90a4703a 	and	r18,r18,r2
   44068:	003b8906 	br	42e90 <__alt_data_end+0xfffd6f70>
   4406c:	d9003617 	ldw	r4,216(sp)
   44070:	d9403817 	ldw	r5,224(sp)
   44074:	da003d15 	stw	r8,244(sp)
   44078:	00488940 	call	48894 <__fpclassifyd>
   4407c:	da003d17 	ldw	r8,244(sp)
   44080:	1000f026 	beq	r2,zero,44444 <___vfprintf_internal_r+0x1b24>
   44084:	d9002a17 	ldw	r4,168(sp)
   44088:	05bff7c4 	movi	r22,-33
   4408c:	00bfffc4 	movi	r2,-1
   44090:	8dac703a 	and	r22,r17,r22
   44094:	20820026 	beq	r4,r2,44898 <___vfprintf_internal_r+0x1f78>
   44098:	008011c4 	movi	r2,71
   4409c:	b081f726 	beq	r22,r2,4487c <___vfprintf_internal_r+0x1f5c>
   440a0:	d9003817 	ldw	r4,224(sp)
   440a4:	90c04014 	ori	r3,r18,256
   440a8:	d8c02c15 	stw	r3,176(sp)
   440ac:	20021516 	blt	r4,zero,44904 <___vfprintf_internal_r+0x1fe4>
   440b0:	dcc03817 	ldw	r19,224(sp)
   440b4:	d8002905 	stb	zero,164(sp)
   440b8:	00801984 	movi	r2,102
   440bc:	8881f926 	beq	r17,r2,448a4 <___vfprintf_internal_r+0x1f84>
   440c0:	00801184 	movi	r2,70
   440c4:	88821c26 	beq	r17,r2,44938 <___vfprintf_internal_r+0x2018>
   440c8:	00801144 	movi	r2,69
   440cc:	b081ef26 	beq	r22,r2,4488c <___vfprintf_internal_r+0x1f6c>
   440d0:	d8c02a17 	ldw	r3,168(sp)
   440d4:	d8802104 	addi	r2,sp,132
   440d8:	d8800315 	stw	r2,12(sp)
   440dc:	d9403617 	ldw	r5,216(sp)
   440e0:	d8802504 	addi	r2,sp,148
   440e4:	d9002d17 	ldw	r4,180(sp)
   440e8:	d8800215 	stw	r2,8(sp)
   440ec:	d8802604 	addi	r2,sp,152
   440f0:	d8c00015 	stw	r3,0(sp)
   440f4:	d8800115 	stw	r2,4(sp)
   440f8:	01c00084 	movi	r7,2
   440fc:	980d883a 	mov	r6,r19
   44100:	d8c03c15 	stw	r3,240(sp)
   44104:	da003d15 	stw	r8,244(sp)
   44108:	00451040 	call	45104 <_dtoa_r>
   4410c:	1021883a 	mov	r16,r2
   44110:	008019c4 	movi	r2,103
   44114:	d8c03c17 	ldw	r3,240(sp)
   44118:	da003d17 	ldw	r8,244(sp)
   4411c:	88817126 	beq	r17,r2,446e4 <___vfprintf_internal_r+0x1dc4>
   44120:	008011c4 	movi	r2,71
   44124:	88829126 	beq	r17,r2,44b6c <___vfprintf_internal_r+0x224c>
   44128:	80f9883a 	add	fp,r16,r3
   4412c:	d9003617 	ldw	r4,216(sp)
   44130:	000d883a 	mov	r6,zero
   44134:	000f883a 	mov	r7,zero
   44138:	980b883a 	mov	r5,r19
   4413c:	da003d15 	stw	r8,244(sp)
   44140:	004c7180 	call	4c718 <__eqdf2>
   44144:	da003d17 	ldw	r8,244(sp)
   44148:	10018d26 	beq	r2,zero,44780 <___vfprintf_internal_r+0x1e60>
   4414c:	d8802117 	ldw	r2,132(sp)
   44150:	1700062e 	bgeu	r2,fp,4416c <___vfprintf_internal_r+0x184c>
   44154:	01000c04 	movi	r4,48
   44158:	10c00044 	addi	r3,r2,1
   4415c:	d8c02115 	stw	r3,132(sp)
   44160:	11000005 	stb	r4,0(r2)
   44164:	d8802117 	ldw	r2,132(sp)
   44168:	173ffb36 	bltu	r2,fp,44158 <__alt_data_end+0xfffd8238>
   4416c:	1405c83a 	sub	r2,r2,r16
   44170:	d8803315 	stw	r2,204(sp)
   44174:	008011c4 	movi	r2,71
   44178:	b0817626 	beq	r22,r2,44754 <___vfprintf_internal_r+0x1e34>
   4417c:	00801944 	movi	r2,101
   44180:	1442800e 	bge	r2,r17,44b84 <___vfprintf_internal_r+0x2264>
   44184:	d8c02617 	ldw	r3,152(sp)
   44188:	00801984 	movi	r2,102
   4418c:	d8c03215 	stw	r3,200(sp)
   44190:	8881fe26 	beq	r17,r2,4498c <___vfprintf_internal_r+0x206c>
   44194:	d8c03217 	ldw	r3,200(sp)
   44198:	d9003317 	ldw	r4,204(sp)
   4419c:	1901dd16 	blt	r3,r4,44914 <___vfprintf_internal_r+0x1ff4>
   441a0:	9480004c 	andi	r18,r18,1
   441a4:	90022b1e 	bne	r18,zero,44a54 <___vfprintf_internal_r+0x2134>
   441a8:	1805883a 	mov	r2,r3
   441ac:	18028316 	blt	r3,zero,44bbc <___vfprintf_internal_r+0x229c>
   441b0:	d8c03217 	ldw	r3,200(sp)
   441b4:	044019c4 	movi	r17,103
   441b8:	d8c02b15 	stw	r3,172(sp)
   441bc:	df002907 	ldb	fp,164(sp)
   441c0:	e001531e 	bne	fp,zero,44710 <___vfprintf_internal_r+0x1df0>
   441c4:	df002783 	ldbu	fp,158(sp)
   441c8:	d8802915 	stw	r2,164(sp)
   441cc:	dc802c17 	ldw	r18,176(sp)
   441d0:	d8002a15 	stw	zero,168(sp)
   441d4:	003baf06 	br	43094 <__alt_data_end+0xfffd7174>
   441d8:	d8c02e17 	ldw	r3,184(sp)
   441dc:	d9002e17 	ldw	r4,184(sp)
   441e0:	d9402e17 	ldw	r5,184(sp)
   441e4:	18c00017 	ldw	r3,0(r3)
   441e8:	21000117 	ldw	r4,4(r4)
   441ec:	29400204 	addi	r5,r5,8
   441f0:	d8c03615 	stw	r3,216(sp)
   441f4:	d9003815 	stw	r4,224(sp)
   441f8:	d9402e15 	stw	r5,184(sp)
   441fc:	003b5006 	br	42f40 <__alt_data_end+0xfffd7020>
   44200:	ac400007 	ldb	r17,0(r21)
   44204:	003a2806 	br	42aa8 <__alt_data_end+0xfffd6b88>
   44208:	9080100c 	andi	r2,r18,64
   4420c:	1000a826 	beq	r2,zero,444b0 <___vfprintf_internal_r+0x1b90>
   44210:	d8c02e17 	ldw	r3,184(sp)
   44214:	002d883a 	mov	r22,zero
   44218:	1cc0000b 	ldhu	r19,0(r3)
   4421c:	18c00104 	addi	r3,r3,4
   44220:	d8c02e15 	stw	r3,184(sp)
   44224:	003caf06 	br	434e4 <__alt_data_end+0xfffd75c4>
   44228:	d9002e17 	ldw	r4,184(sp)
   4422c:	d9402a17 	ldw	r5,168(sp)
   44230:	002d883a 	mov	r22,zero
   44234:	20800104 	addi	r2,r4,4
   44238:	24c00017 	ldw	r19,0(r4)
   4423c:	283ebb0e 	bge	r5,zero,43d2c <__alt_data_end+0xfffd7e0c>
   44240:	003ef106 	br	43e08 <__alt_data_end+0xfffd7ee8>
   44244:	9080040c 	andi	r2,r18,16
   44248:	1000921e 	bne	r2,zero,44494 <___vfprintf_internal_r+0x1b74>
   4424c:	9480100c 	andi	r18,r18,64
   44250:	90013926 	beq	r18,zero,44738 <___vfprintf_internal_r+0x1e18>
   44254:	d9402e17 	ldw	r5,184(sp)
   44258:	d8c02f17 	ldw	r3,188(sp)
   4425c:	28800017 	ldw	r2,0(r5)
   44260:	29400104 	addi	r5,r5,4
   44264:	d9402e15 	stw	r5,184(sp)
   44268:	10c0000d 	sth	r3,0(r2)
   4426c:	0039e406 	br	42a00 <__alt_data_end+0xfffd6ae0>
   44270:	9080100c 	andi	r2,r18,64
   44274:	10008026 	beq	r2,zero,44478 <___vfprintf_internal_r+0x1b58>
   44278:	d8802e17 	ldw	r2,184(sp)
   4427c:	14c0000f 	ldh	r19,0(r2)
   44280:	10800104 	addi	r2,r2,4
   44284:	d8802e15 	stw	r2,184(sp)
   44288:	982dd7fa 	srai	r22,r19,31
   4428c:	b005883a 	mov	r2,r22
   44290:	003af706 	br	42e70 <__alt_data_end+0xfffd6f50>
   44294:	9080100c 	andi	r2,r18,64
   44298:	d8002785 	stb	zero,158(sp)
   4429c:	10008a1e 	bne	r2,zero,444c8 <___vfprintf_internal_r+0x1ba8>
   442a0:	d9002e17 	ldw	r4,184(sp)
   442a4:	d9402a17 	ldw	r5,168(sp)
   442a8:	002d883a 	mov	r22,zero
   442ac:	20800104 	addi	r2,r4,4
   442b0:	24c00017 	ldw	r19,0(r4)
   442b4:	283e4b0e 	bge	r5,zero,43be4 <__alt_data_end+0xfffd7cc4>
   442b8:	9d86b03a 	or	r3,r19,r22
   442bc:	d8802e15 	stw	r2,184(sp)
   442c0:	183e4c1e 	bne	r3,zero,43bf4 <__alt_data_end+0xfffd7cd4>
   442c4:	0039883a 	mov	fp,zero
   442c8:	0005883a 	mov	r2,zero
   442cc:	003d4006 	br	437d0 <__alt_data_end+0xfffd78b0>
   442d0:	01400174 	movhi	r5,5
   442d4:	29420984 	addi	r5,r5,2086
   442d8:	d9402c15 	stw	r5,176(sp)
   442dc:	d9402c17 	ldw	r5,176(sp)
   442e0:	1c47883a 	add	r3,r3,r17
   442e4:	10800044 	addi	r2,r2,1
   442e8:	41400015 	stw	r5,0(r8)
   442ec:	44400115 	stw	r17,4(r8)
   442f0:	d8c02015 	stw	r3,128(sp)
   442f4:	d8801f15 	stw	r2,124(sp)
   442f8:	010001c4 	movi	r4,7
   442fc:	20bec816 	blt	r4,r2,43e20 <__alt_data_end+0xfffd7f00>
   44300:	42000204 	addi	r8,r8,8
   44304:	003ecd06 	br	43e3c <__alt_data_end+0xfffd7f1c>
   44308:	d9002a17 	ldw	r4,168(sp)
   4430c:	d8002785 	stb	zero,158(sp)
   44310:	203d2d16 	blt	r4,zero,437c8 <__alt_data_end+0xfffd78a8>
   44314:	00bfdfc4 	movi	r2,-129
   44318:	90a4703a 	and	r18,r18,r2
   4431c:	003a6106 	br	42ca4 <__alt_data_end+0xfffd6d84>
   44320:	01000174 	movhi	r4,5
   44324:	21020984 	addi	r4,r4,2086
   44328:	d9002c15 	stw	r4,176(sp)
   4432c:	003bea06 	br	432d8 <__alt_data_end+0xfffd73b8>
   44330:	d9002d17 	ldw	r4,180(sp)
   44334:	d9801e04 	addi	r6,sp,120
   44338:	b80b883a 	mov	r5,r23
   4433c:	0048ae00 	call	48ae0 <__sprint_r>
   44340:	103a7b1e 	bne	r2,zero,42d30 <__alt_data_end+0xfffd6e10>
   44344:	d8c02017 	ldw	r3,128(sp)
   44348:	da000404 	addi	r8,sp,16
   4434c:	003d4106 	br	43854 <__alt_data_end+0xfffd7934>
   44350:	d8801f17 	ldw	r2,124(sp)
   44354:	01400174 	movhi	r5,5
   44358:	01000044 	movi	r4,1
   4435c:	18c00044 	addi	r3,r3,1
   44360:	10800044 	addi	r2,r2,1
   44364:	29420904 	addi	r5,r5,2084
   44368:	41000115 	stw	r4,4(r8)
   4436c:	41400015 	stw	r5,0(r8)
   44370:	d8c02015 	stw	r3,128(sp)
   44374:	d8801f15 	stw	r2,124(sp)
   44378:	010001c4 	movi	r4,7
   4437c:	20805c16 	blt	r4,r2,444f0 <___vfprintf_internal_r+0x1bd0>
   44380:	42000204 	addi	r8,r8,8
   44384:	8800041e 	bne	r17,zero,44398 <___vfprintf_internal_r+0x1a78>
   44388:	d8803317 	ldw	r2,204(sp)
   4438c:	1000021e 	bne	r2,zero,44398 <___vfprintf_internal_r+0x1a78>
   44390:	9080004c 	andi	r2,r18,1
   44394:	103be726 	beq	r2,zero,43334 <__alt_data_end+0xfffd7414>
   44398:	d9003717 	ldw	r4,220(sp)
   4439c:	d8801f17 	ldw	r2,124(sp)
   443a0:	d9403417 	ldw	r5,208(sp)
   443a4:	20c7883a 	add	r3,r4,r3
   443a8:	10800044 	addi	r2,r2,1
   443ac:	41000115 	stw	r4,4(r8)
   443b0:	41400015 	stw	r5,0(r8)
   443b4:	d8c02015 	stw	r3,128(sp)
   443b8:	d8801f15 	stw	r2,124(sp)
   443bc:	010001c4 	movi	r4,7
   443c0:	20812116 	blt	r4,r2,44848 <___vfprintf_internal_r+0x1f28>
   443c4:	42000204 	addi	r8,r8,8
   443c8:	0463c83a 	sub	r17,zero,r17
   443cc:	0440730e 	bge	zero,r17,4459c <___vfprintf_internal_r+0x1c7c>
   443d0:	05800404 	movi	r22,16
   443d4:	b440860e 	bge	r22,r17,445f0 <___vfprintf_internal_r+0x1cd0>
   443d8:	01400174 	movhi	r5,5
   443dc:	29420984 	addi	r5,r5,2086
   443e0:	d9402c15 	stw	r5,176(sp)
   443e4:	070001c4 	movi	fp,7
   443e8:	dcc02d17 	ldw	r19,180(sp)
   443ec:	00000306 	br	443fc <___vfprintf_internal_r+0x1adc>
   443f0:	42000204 	addi	r8,r8,8
   443f4:	8c7ffc04 	addi	r17,r17,-16
   443f8:	b440800e 	bge	r22,r17,445fc <___vfprintf_internal_r+0x1cdc>
   443fc:	18c00404 	addi	r3,r3,16
   44400:	10800044 	addi	r2,r2,1
   44404:	45000015 	stw	r20,0(r8)
   44408:	45800115 	stw	r22,4(r8)
   4440c:	d8c02015 	stw	r3,128(sp)
   44410:	d8801f15 	stw	r2,124(sp)
   44414:	e0bff60e 	bge	fp,r2,443f0 <__alt_data_end+0xfffd84d0>
   44418:	d9801e04 	addi	r6,sp,120
   4441c:	b80b883a 	mov	r5,r23
   44420:	9809883a 	mov	r4,r19
   44424:	0048ae00 	call	48ae0 <__sprint_r>
   44428:	103a411e 	bne	r2,zero,42d30 <__alt_data_end+0xfffd6e10>
   4442c:	d8c02017 	ldw	r3,128(sp)
   44430:	d8801f17 	ldw	r2,124(sp)
   44434:	da000404 	addi	r8,sp,16
   44438:	003fee06 	br	443f4 <__alt_data_end+0xfffd84d4>
   4443c:	00bfffc4 	movi	r2,-1
   44440:	003a3f06 	br	42d40 <__alt_data_end+0xfffd6e20>
   44444:	008011c4 	movi	r2,71
   44448:	1440b816 	blt	r2,r17,4472c <___vfprintf_internal_r+0x1e0c>
   4444c:	04000174 	movhi	r16,5
   44450:	8401fb04 	addi	r16,r16,2028
   44454:	00c000c4 	movi	r3,3
   44458:	00bfdfc4 	movi	r2,-129
   4445c:	d8c02915 	stw	r3,164(sp)
   44460:	90a4703a 	and	r18,r18,r2
   44464:	df002783 	ldbu	fp,158(sp)
   44468:	d8c02b15 	stw	r3,172(sp)
   4446c:	d8002a15 	stw	zero,168(sp)
   44470:	d8003215 	stw	zero,200(sp)
   44474:	003b0706 	br	43094 <__alt_data_end+0xfffd7174>
   44478:	d8c02e17 	ldw	r3,184(sp)
   4447c:	1cc00017 	ldw	r19,0(r3)
   44480:	18c00104 	addi	r3,r3,4
   44484:	d8c02e15 	stw	r3,184(sp)
   44488:	982dd7fa 	srai	r22,r19,31
   4448c:	b005883a 	mov	r2,r22
   44490:	003a7706 	br	42e70 <__alt_data_end+0xfffd6f50>
   44494:	d8c02e17 	ldw	r3,184(sp)
   44498:	d9002f17 	ldw	r4,188(sp)
   4449c:	18800017 	ldw	r2,0(r3)
   444a0:	18c00104 	addi	r3,r3,4
   444a4:	d8c02e15 	stw	r3,184(sp)
   444a8:	11000015 	stw	r4,0(r2)
   444ac:	00395406 	br	42a00 <__alt_data_end+0xfffd6ae0>
   444b0:	d9002e17 	ldw	r4,184(sp)
   444b4:	002d883a 	mov	r22,zero
   444b8:	24c00017 	ldw	r19,0(r4)
   444bc:	21000104 	addi	r4,r4,4
   444c0:	d9002e15 	stw	r4,184(sp)
   444c4:	003c0706 	br	434e4 <__alt_data_end+0xfffd75c4>
   444c8:	d9402e17 	ldw	r5,184(sp)
   444cc:	d8c02a17 	ldw	r3,168(sp)
   444d0:	002d883a 	mov	r22,zero
   444d4:	28800104 	addi	r2,r5,4
   444d8:	2cc0000b 	ldhu	r19,0(r5)
   444dc:	183dc10e 	bge	r3,zero,43be4 <__alt_data_end+0xfffd7cc4>
   444e0:	003f7506 	br	442b8 <__alt_data_end+0xfffd8398>
   444e4:	04000174 	movhi	r16,5
   444e8:	8401f904 	addi	r16,r16,2020
   444ec:	003aa706 	br	42f8c <__alt_data_end+0xfffd706c>
   444f0:	d9002d17 	ldw	r4,180(sp)
   444f4:	d9801e04 	addi	r6,sp,120
   444f8:	b80b883a 	mov	r5,r23
   444fc:	0048ae00 	call	48ae0 <__sprint_r>
   44500:	103a0b1e 	bne	r2,zero,42d30 <__alt_data_end+0xfffd6e10>
   44504:	dc402617 	ldw	r17,152(sp)
   44508:	d8c02017 	ldw	r3,128(sp)
   4450c:	da000404 	addi	r8,sp,16
   44510:	003f9c06 	br	44384 <__alt_data_end+0xfffd8464>
   44514:	ac400043 	ldbu	r17,1(r21)
   44518:	84000814 	ori	r16,r16,32
   4451c:	ad400044 	addi	r21,r21,1
   44520:	8c403fcc 	andi	r17,r17,255
   44524:	8c40201c 	xori	r17,r17,128
   44528:	8c7fe004 	addi	r17,r17,-128
   4452c:	00395e06 	br	42aa8 <__alt_data_end+0xfffd6b88>
   44530:	d8c02e15 	stw	r3,184(sp)
   44534:	0039883a 	mov	fp,zero
   44538:	003e3506 	br	43e10 <__alt_data_end+0xfffd7ef0>
   4453c:	d9002d17 	ldw	r4,180(sp)
   44540:	d9801e04 	addi	r6,sp,120
   44544:	b80b883a 	mov	r5,r23
   44548:	0048ae00 	call	48ae0 <__sprint_r>
   4454c:	1039f81e 	bne	r2,zero,42d30 <__alt_data_end+0xfffd6e10>
   44550:	d8c02017 	ldw	r3,128(sp)
   44554:	da000404 	addi	r8,sp,16
   44558:	003cd006 	br	4389c <__alt_data_end+0xfffd797c>
   4455c:	8009883a 	mov	r4,r16
   44560:	df003d15 	stw	fp,244(sp)
   44564:	00428880 	call	42888 <strlen>
   44568:	d8802b15 	stw	r2,172(sp)
   4456c:	da003d17 	ldw	r8,244(sp)
   44570:	103c200e 	bge	r2,zero,435f4 <__alt_data_end+0xfffd76d4>
   44574:	0005883a 	mov	r2,zero
   44578:	003c1e06 	br	435f4 <__alt_data_end+0xfffd76d4>
   4457c:	d9002d17 	ldw	r4,180(sp)
   44580:	d9801e04 	addi	r6,sp,120
   44584:	b80b883a 	mov	r5,r23
   44588:	0048ae00 	call	48ae0 <__sprint_r>
   4458c:	1039e81e 	bne	r2,zero,42d30 <__alt_data_end+0xfffd6e10>
   44590:	d8c02017 	ldw	r3,128(sp)
   44594:	d8801f17 	ldw	r2,124(sp)
   44598:	da000404 	addi	r8,sp,16
   4459c:	d9403317 	ldw	r5,204(sp)
   445a0:	10800044 	addi	r2,r2,1
   445a4:	44000015 	stw	r16,0(r8)
   445a8:	28c7883a 	add	r3,r5,r3
   445ac:	003b5b06 	br	4331c <__alt_data_end+0xfffd73fc>
   445b0:	01000174 	movhi	r4,5
   445b4:	21020d84 	addi	r4,r4,2102
   445b8:	d9003515 	stw	r4,212(sp)
   445bc:	003af206 	br	43188 <__alt_data_end+0xfffd7268>
   445c0:	013fffc4 	movi	r4,-1
   445c4:	003a0806 	br	42de8 <__alt_data_end+0xfffd6ec8>
   445c8:	0023883a 	mov	r17,zero
   445cc:	003d9d06 	br	43c44 <__alt_data_end+0xfffd7d24>
   445d0:	d9002d17 	ldw	r4,180(sp)
   445d4:	d9801e04 	addi	r6,sp,120
   445d8:	b80b883a 	mov	r5,r23
   445dc:	0048ae00 	call	48ae0 <__sprint_r>
   445e0:	1039d31e 	bne	r2,zero,42d30 <__alt_data_end+0xfffd6e10>
   445e4:	d8c02017 	ldw	r3,128(sp)
   445e8:	da000404 	addi	r8,sp,16
   445ec:	003d9406 	br	43c40 <__alt_data_end+0xfffd7d20>
   445f0:	01000174 	movhi	r4,5
   445f4:	21020984 	addi	r4,r4,2086
   445f8:	d9002c15 	stw	r4,176(sp)
   445fc:	d9002c17 	ldw	r4,176(sp)
   44600:	1c47883a 	add	r3,r3,r17
   44604:	10800044 	addi	r2,r2,1
   44608:	41000015 	stw	r4,0(r8)
   4460c:	44400115 	stw	r17,4(r8)
   44610:	d8c02015 	stw	r3,128(sp)
   44614:	d8801f15 	stw	r2,124(sp)
   44618:	010001c4 	movi	r4,7
   4461c:	20bfd716 	blt	r4,r2,4457c <__alt_data_end+0xfffd865c>
   44620:	42000204 	addi	r8,r8,8
   44624:	003fdd06 	br	4459c <__alt_data_end+0xfffd867c>
   44628:	d9002d17 	ldw	r4,180(sp)
   4462c:	d9801e04 	addi	r6,sp,120
   44630:	b80b883a 	mov	r5,r23
   44634:	0048ae00 	call	48ae0 <__sprint_r>
   44638:	1039bd1e 	bne	r2,zero,42d30 <__alt_data_end+0xfffd6e10>
   4463c:	d8802617 	ldw	r2,152(sp)
   44640:	d8c02017 	ldw	r3,128(sp)
   44644:	da000404 	addi	r8,sp,16
   44648:	003e1006 	br	43e8c <__alt_data_end+0xfffd7f6c>
   4464c:	00800044 	movi	r2,1
   44650:	10803fcc 	andi	r2,r2,255
   44654:	00c00044 	movi	r3,1
   44658:	10fa0d26 	beq	r2,r3,42e90 <__alt_data_end+0xfffd6f70>
   4465c:	00c00084 	movi	r3,2
   44660:	10fbaf26 	beq	r2,r3,43520 <__alt_data_end+0xfffd7600>
   44664:	003a6d06 	br	4301c <__alt_data_end+0xfffd70fc>
   44668:	01000174 	movhi	r4,5
   4466c:	21020d84 	addi	r4,r4,2102
   44670:	d9003515 	stw	r4,212(sp)
   44674:	003b5406 	br	433c8 <__alt_data_end+0xfffd74a8>
   44678:	d8802a17 	ldw	r2,168(sp)
   4467c:	00c00184 	movi	r3,6
   44680:	1880012e 	bgeu	r3,r2,44688 <___vfprintf_internal_r+0x1d68>
   44684:	1805883a 	mov	r2,r3
   44688:	d8802b15 	stw	r2,172(sp)
   4468c:	1000ef16 	blt	r2,zero,44a4c <___vfprintf_internal_r+0x212c>
   44690:	04000174 	movhi	r16,5
   44694:	d8802915 	stw	r2,164(sp)
   44698:	dcc02e15 	stw	r19,184(sp)
   4469c:	d8002a15 	stw	zero,168(sp)
   446a0:	d8003215 	stw	zero,200(sp)
   446a4:	84020704 	addi	r16,r16,2076
   446a8:	0039883a 	mov	fp,zero
   446ac:	003a8006 	br	430b0 <__alt_data_end+0xfffd7190>
   446b0:	0021883a 	mov	r16,zero
   446b4:	003e0706 	br	43ed4 <__alt_data_end+0xfffd7fb4>
   446b8:	d9002d17 	ldw	r4,180(sp)
   446bc:	d9801e04 	addi	r6,sp,120
   446c0:	b80b883a 	mov	r5,r23
   446c4:	0048ae00 	call	48ae0 <__sprint_r>
   446c8:	1039991e 	bne	r2,zero,42d30 <__alt_data_end+0xfffd6e10>
   446cc:	d8802617 	ldw	r2,152(sp)
   446d0:	d9403317 	ldw	r5,204(sp)
   446d4:	d8c02017 	ldw	r3,128(sp)
   446d8:	da000404 	addi	r8,sp,16
   446dc:	2885c83a 	sub	r2,r5,r2
   446e0:	003dfb06 	br	43ed0 <__alt_data_end+0xfffd7fb0>
   446e4:	9080004c 	andi	r2,r18,1
   446e8:	103e8f1e 	bne	r2,zero,44128 <__alt_data_end+0xfffd8208>
   446ec:	d8802117 	ldw	r2,132(sp)
   446f0:	003e9e06 	br	4416c <__alt_data_end+0xfffd824c>
   446f4:	1025883a 	mov	r18,r2
   446f8:	0039883a 	mov	fp,zero
   446fc:	00800084 	movi	r2,2
   44700:	003fd306 	br	44650 <__alt_data_end+0xfffd8730>
   44704:	07000b44 	movi	fp,45
   44708:	df002785 	stb	fp,158(sp)
   4470c:	003a1b06 	br	42f7c <__alt_data_end+0xfffd705c>
   44710:	00c00b44 	movi	r3,45
   44714:	d8c02785 	stb	r3,158(sp)
   44718:	d8802915 	stw	r2,164(sp)
   4471c:	dc802c17 	ldw	r18,176(sp)
   44720:	d8002a15 	stw	zero,168(sp)
   44724:	07000b44 	movi	fp,45
   44728:	003a5e06 	br	430a4 <__alt_data_end+0xfffd7184>
   4472c:	04000174 	movhi	r16,5
   44730:	8401fc04 	addi	r16,r16,2032
   44734:	003f4706 	br	44454 <__alt_data_end+0xfffd8534>
   44738:	d9002e17 	ldw	r4,184(sp)
   4473c:	d9402f17 	ldw	r5,188(sp)
   44740:	20800017 	ldw	r2,0(r4)
   44744:	21000104 	addi	r4,r4,4
   44748:	d9002e15 	stw	r4,184(sp)
   4474c:	11400015 	stw	r5,0(r2)
   44750:	0038ab06 	br	42a00 <__alt_data_end+0xfffd6ae0>
   44754:	dd802617 	ldw	r22,152(sp)
   44758:	00bfff44 	movi	r2,-3
   4475c:	b0801c16 	blt	r22,r2,447d0 <___vfprintf_internal_r+0x1eb0>
   44760:	d9402a17 	ldw	r5,168(sp)
   44764:	2d801a16 	blt	r5,r22,447d0 <___vfprintf_internal_r+0x1eb0>
   44768:	dd803215 	stw	r22,200(sp)
   4476c:	003e8906 	br	44194 <__alt_data_end+0xfffd8274>
   44770:	01000174 	movhi	r4,5
   44774:	21020984 	addi	r4,r4,2086
   44778:	d9002c15 	stw	r4,176(sp)
   4477c:	003c9106 	br	439c4 <__alt_data_end+0xfffd7aa4>
   44780:	e005883a 	mov	r2,fp
   44784:	003e7906 	br	4416c <__alt_data_end+0xfffd824c>
   44788:	d9002a17 	ldw	r4,168(sp)
   4478c:	df002783 	ldbu	fp,158(sp)
   44790:	dcc02e15 	stw	r19,184(sp)
   44794:	d9002915 	stw	r4,164(sp)
   44798:	d9002b15 	stw	r4,172(sp)
   4479c:	d8002a15 	stw	zero,168(sp)
   447a0:	d8003215 	stw	zero,200(sp)
   447a4:	003a3b06 	br	43094 <__alt_data_end+0xfffd7174>
   447a8:	9080004c 	andi	r2,r18,1
   447ac:	0039883a 	mov	fp,zero
   447b0:	10000426 	beq	r2,zero,447c4 <___vfprintf_internal_r+0x1ea4>
   447b4:	00800c04 	movi	r2,48
   447b8:	dc001dc4 	addi	r16,sp,119
   447bc:	d8801dc5 	stb	r2,119(sp)
   447c0:	003b6406 	br	43554 <__alt_data_end+0xfffd7634>
   447c4:	d8002b15 	stw	zero,172(sp)
   447c8:	dc001e04 	addi	r16,sp,120
   447cc:	003a2b06 	br	4307c <__alt_data_end+0xfffd715c>
   447d0:	8c7fff84 	addi	r17,r17,-2
   447d4:	b5bfffc4 	addi	r22,r22,-1
   447d8:	dd802615 	stw	r22,152(sp)
   447dc:	dc4022c5 	stb	r17,139(sp)
   447e0:	b000bf16 	blt	r22,zero,44ae0 <___vfprintf_internal_r+0x21c0>
   447e4:	00800ac4 	movi	r2,43
   447e8:	d8802305 	stb	r2,140(sp)
   447ec:	00800244 	movi	r2,9
   447f0:	15807016 	blt	r2,r22,449b4 <___vfprintf_internal_r+0x2094>
   447f4:	00800c04 	movi	r2,48
   447f8:	b5800c04 	addi	r22,r22,48
   447fc:	d8802345 	stb	r2,141(sp)
   44800:	dd802385 	stb	r22,142(sp)
   44804:	d88023c4 	addi	r2,sp,143
   44808:	df0022c4 	addi	fp,sp,139
   4480c:	d8c03317 	ldw	r3,204(sp)
   44810:	1739c83a 	sub	fp,r2,fp
   44814:	d9003317 	ldw	r4,204(sp)
   44818:	e0c7883a 	add	r3,fp,r3
   4481c:	df003a15 	stw	fp,232(sp)
   44820:	d8c02b15 	stw	r3,172(sp)
   44824:	00800044 	movi	r2,1
   44828:	1100b30e 	bge	r2,r4,44af8 <___vfprintf_internal_r+0x21d8>
   4482c:	d8c02b17 	ldw	r3,172(sp)
   44830:	18c00044 	addi	r3,r3,1
   44834:	d8c02b15 	stw	r3,172(sp)
   44838:	1805883a 	mov	r2,r3
   4483c:	1800ac16 	blt	r3,zero,44af0 <___vfprintf_internal_r+0x21d0>
   44840:	d8003215 	stw	zero,200(sp)
   44844:	003e5d06 	br	441bc <__alt_data_end+0xfffd829c>
   44848:	d9002d17 	ldw	r4,180(sp)
   4484c:	d9801e04 	addi	r6,sp,120
   44850:	b80b883a 	mov	r5,r23
   44854:	0048ae00 	call	48ae0 <__sprint_r>
   44858:	1039351e 	bne	r2,zero,42d30 <__alt_data_end+0xfffd6e10>
   4485c:	dc402617 	ldw	r17,152(sp)
   44860:	d8c02017 	ldw	r3,128(sp)
   44864:	d8801f17 	ldw	r2,124(sp)
   44868:	da000404 	addi	r8,sp,16
   4486c:	003ed606 	br	443c8 <__alt_data_end+0xfffd84a8>
   44870:	182b883a 	mov	r21,r3
   44874:	d8002a15 	stw	zero,168(sp)
   44878:	00388c06 	br	42aac <__alt_data_end+0xfffd6b8c>
   4487c:	d8802a17 	ldw	r2,168(sp)
   44880:	103e071e 	bne	r2,zero,440a0 <__alt_data_end+0xfffd8180>
   44884:	dc002a15 	stw	r16,168(sp)
   44888:	003e0506 	br	440a0 <__alt_data_end+0xfffd8180>
   4488c:	d9002a17 	ldw	r4,168(sp)
   44890:	20c00044 	addi	r3,r4,1
   44894:	003e0f06 	br	440d4 <__alt_data_end+0xfffd81b4>
   44898:	01400184 	movi	r5,6
   4489c:	d9402a15 	stw	r5,168(sp)
   448a0:	003dff06 	br	440a0 <__alt_data_end+0xfffd8180>
   448a4:	d8802104 	addi	r2,sp,132
   448a8:	d8800315 	stw	r2,12(sp)
   448ac:	d8802504 	addi	r2,sp,148
   448b0:	d8800215 	stw	r2,8(sp)
   448b4:	d8802604 	addi	r2,sp,152
   448b8:	d8800115 	stw	r2,4(sp)
   448bc:	d8802a17 	ldw	r2,168(sp)
   448c0:	d9403617 	ldw	r5,216(sp)
   448c4:	d9002d17 	ldw	r4,180(sp)
   448c8:	d8800015 	stw	r2,0(sp)
   448cc:	01c000c4 	movi	r7,3
   448d0:	980d883a 	mov	r6,r19
   448d4:	da003d15 	stw	r8,244(sp)
   448d8:	00451040 	call	45104 <_dtoa_r>
   448dc:	d8c02a17 	ldw	r3,168(sp)
   448e0:	da003d17 	ldw	r8,244(sp)
   448e4:	1021883a 	mov	r16,r2
   448e8:	10f9883a 	add	fp,r2,r3
   448ec:	81000007 	ldb	r4,0(r16)
   448f0:	00800c04 	movi	r2,48
   448f4:	20805e26 	beq	r4,r2,44a70 <___vfprintf_internal_r+0x2150>
   448f8:	d8c02617 	ldw	r3,152(sp)
   448fc:	e0f9883a 	add	fp,fp,r3
   44900:	003e0a06 	br	4412c <__alt_data_end+0xfffd820c>
   44904:	00c00b44 	movi	r3,45
   44908:	24e0003c 	xorhi	r19,r4,32768
   4490c:	d8c02905 	stb	r3,164(sp)
   44910:	003de906 	br	440b8 <__alt_data_end+0xfffd8198>
   44914:	d8c03217 	ldw	r3,200(sp)
   44918:	00c07a0e 	bge	zero,r3,44b04 <___vfprintf_internal_r+0x21e4>
   4491c:	00800044 	movi	r2,1
   44920:	d9003317 	ldw	r4,204(sp)
   44924:	1105883a 	add	r2,r2,r4
   44928:	d8802b15 	stw	r2,172(sp)
   4492c:	10004e16 	blt	r2,zero,44a68 <___vfprintf_internal_r+0x2148>
   44930:	044019c4 	movi	r17,103
   44934:	003e2106 	br	441bc <__alt_data_end+0xfffd829c>
   44938:	d9002a17 	ldw	r4,168(sp)
   4493c:	d8802104 	addi	r2,sp,132
   44940:	d8800315 	stw	r2,12(sp)
   44944:	d9000015 	stw	r4,0(sp)
   44948:	d8802504 	addi	r2,sp,148
   4494c:	d9403617 	ldw	r5,216(sp)
   44950:	d9002d17 	ldw	r4,180(sp)
   44954:	d8800215 	stw	r2,8(sp)
   44958:	d8802604 	addi	r2,sp,152
   4495c:	d8800115 	stw	r2,4(sp)
   44960:	01c000c4 	movi	r7,3
   44964:	980d883a 	mov	r6,r19
   44968:	da003d15 	stw	r8,244(sp)
   4496c:	00451040 	call	45104 <_dtoa_r>
   44970:	d8c02a17 	ldw	r3,168(sp)
   44974:	da003d17 	ldw	r8,244(sp)
   44978:	1021883a 	mov	r16,r2
   4497c:	00801184 	movi	r2,70
   44980:	80f9883a 	add	fp,r16,r3
   44984:	88bfd926 	beq	r17,r2,448ec <__alt_data_end+0xfffd89cc>
   44988:	003de806 	br	4412c <__alt_data_end+0xfffd820c>
   4498c:	d9002a17 	ldw	r4,168(sp)
   44990:	00c04d0e 	bge	zero,r3,44ac8 <___vfprintf_internal_r+0x21a8>
   44994:	2000441e 	bne	r4,zero,44aa8 <___vfprintf_internal_r+0x2188>
   44998:	9480004c 	andi	r18,r18,1
   4499c:	9000421e 	bne	r18,zero,44aa8 <___vfprintf_internal_r+0x2188>
   449a0:	1805883a 	mov	r2,r3
   449a4:	18006f16 	blt	r3,zero,44b64 <___vfprintf_internal_r+0x2244>
   449a8:	d8c03217 	ldw	r3,200(sp)
   449ac:	d8c02b15 	stw	r3,172(sp)
   449b0:	003e0206 	br	441bc <__alt_data_end+0xfffd829c>
   449b4:	df0022c4 	addi	fp,sp,139
   449b8:	dc002a15 	stw	r16,168(sp)
   449bc:	4027883a 	mov	r19,r8
   449c0:	e021883a 	mov	r16,fp
   449c4:	b009883a 	mov	r4,r22
   449c8:	01400284 	movi	r5,10
   449cc:	004b3440 	call	4b344 <__modsi3>
   449d0:	10800c04 	addi	r2,r2,48
   449d4:	843fffc4 	addi	r16,r16,-1
   449d8:	b009883a 	mov	r4,r22
   449dc:	01400284 	movi	r5,10
   449e0:	80800005 	stb	r2,0(r16)
   449e4:	004b2c00 	call	4b2c0 <__divsi3>
   449e8:	102d883a 	mov	r22,r2
   449ec:	00800244 	movi	r2,9
   449f0:	15bff416 	blt	r2,r22,449c4 <__alt_data_end+0xfffd8aa4>
   449f4:	9811883a 	mov	r8,r19
   449f8:	b0800c04 	addi	r2,r22,48
   449fc:	8027883a 	mov	r19,r16
   44a00:	997fffc4 	addi	r5,r19,-1
   44a04:	98bfffc5 	stb	r2,-1(r19)
   44a08:	dc002a17 	ldw	r16,168(sp)
   44a0c:	2f006d2e 	bgeu	r5,fp,44bc4 <___vfprintf_internal_r+0x22a4>
   44a10:	d9c02384 	addi	r7,sp,142
   44a14:	3ccfc83a 	sub	r7,r7,r19
   44a18:	d9002344 	addi	r4,sp,141
   44a1c:	e1cf883a 	add	r7,fp,r7
   44a20:	00000106 	br	44a28 <___vfprintf_internal_r+0x2108>
   44a24:	28800003 	ldbu	r2,0(r5)
   44a28:	20800005 	stb	r2,0(r4)
   44a2c:	21000044 	addi	r4,r4,1
   44a30:	29400044 	addi	r5,r5,1
   44a34:	393ffb1e 	bne	r7,r4,44a24 <__alt_data_end+0xfffd8b04>
   44a38:	d8802304 	addi	r2,sp,140
   44a3c:	14c5c83a 	sub	r2,r2,r19
   44a40:	d8c02344 	addi	r3,sp,141
   44a44:	1885883a 	add	r2,r3,r2
   44a48:	003f7006 	br	4480c <__alt_data_end+0xfffd88ec>
   44a4c:	0005883a 	mov	r2,zero
   44a50:	003f0f06 	br	44690 <__alt_data_end+0xfffd8770>
   44a54:	d8c03217 	ldw	r3,200(sp)
   44a58:	18c00044 	addi	r3,r3,1
   44a5c:	d8c02b15 	stw	r3,172(sp)
   44a60:	1805883a 	mov	r2,r3
   44a64:	183fb20e 	bge	r3,zero,44930 <__alt_data_end+0xfffd8a10>
   44a68:	0005883a 	mov	r2,zero
   44a6c:	003fb006 	br	44930 <__alt_data_end+0xfffd8a10>
   44a70:	d9003617 	ldw	r4,216(sp)
   44a74:	000d883a 	mov	r6,zero
   44a78:	000f883a 	mov	r7,zero
   44a7c:	980b883a 	mov	r5,r19
   44a80:	d8c03c15 	stw	r3,240(sp)
   44a84:	da003d15 	stw	r8,244(sp)
   44a88:	004c7180 	call	4c718 <__eqdf2>
   44a8c:	d8c03c17 	ldw	r3,240(sp)
   44a90:	da003d17 	ldw	r8,244(sp)
   44a94:	103f9826 	beq	r2,zero,448f8 <__alt_data_end+0xfffd89d8>
   44a98:	00800044 	movi	r2,1
   44a9c:	10c7c83a 	sub	r3,r2,r3
   44aa0:	d8c02615 	stw	r3,152(sp)
   44aa4:	003f9506 	br	448fc <__alt_data_end+0xfffd89dc>
   44aa8:	d9002a17 	ldw	r4,168(sp)
   44aac:	d8c03217 	ldw	r3,200(sp)
   44ab0:	20800044 	addi	r2,r4,1
   44ab4:	1885883a 	add	r2,r3,r2
   44ab8:	d8802b15 	stw	r2,172(sp)
   44abc:	103dbf0e 	bge	r2,zero,441bc <__alt_data_end+0xfffd829c>
   44ac0:	0005883a 	mov	r2,zero
   44ac4:	003dbd06 	br	441bc <__alt_data_end+0xfffd829c>
   44ac8:	2000201e 	bne	r4,zero,44b4c <___vfprintf_internal_r+0x222c>
   44acc:	9480004c 	andi	r18,r18,1
   44ad0:	90001e1e 	bne	r18,zero,44b4c <___vfprintf_internal_r+0x222c>
   44ad4:	00800044 	movi	r2,1
   44ad8:	d8802b15 	stw	r2,172(sp)
   44adc:	003db706 	br	441bc <__alt_data_end+0xfffd829c>
   44ae0:	00800b44 	movi	r2,45
   44ae4:	05adc83a 	sub	r22,zero,r22
   44ae8:	d8802305 	stb	r2,140(sp)
   44aec:	003f3f06 	br	447ec <__alt_data_end+0xfffd88cc>
   44af0:	0005883a 	mov	r2,zero
   44af4:	003f5206 	br	44840 <__alt_data_end+0xfffd8920>
   44af8:	90a4703a 	and	r18,r18,r2
   44afc:	903f4e26 	beq	r18,zero,44838 <__alt_data_end+0xfffd8918>
   44b00:	003f4a06 	br	4482c <__alt_data_end+0xfffd890c>
   44b04:	00800084 	movi	r2,2
   44b08:	10c5c83a 	sub	r2,r2,r3
   44b0c:	003f8406 	br	44920 <__alt_data_end+0xfffd8a00>
   44b10:	d9402e17 	ldw	r5,184(sp)
   44b14:	d9002e17 	ldw	r4,184(sp)
   44b18:	ac400043 	ldbu	r17,1(r21)
   44b1c:	29400017 	ldw	r5,0(r5)
   44b20:	20800104 	addi	r2,r4,4
   44b24:	d8802e15 	stw	r2,184(sp)
   44b28:	d9402a15 	stw	r5,168(sp)
   44b2c:	182b883a 	mov	r21,r3
   44b30:	283e7b0e 	bge	r5,zero,44520 <__alt_data_end+0xfffd8600>
   44b34:	8c403fcc 	andi	r17,r17,255
   44b38:	017fffc4 	movi	r5,-1
   44b3c:	8c40201c 	xori	r17,r17,128
   44b40:	d9402a15 	stw	r5,168(sp)
   44b44:	8c7fe004 	addi	r17,r17,-128
   44b48:	0037d706 	br	42aa8 <__alt_data_end+0xfffd6b88>
   44b4c:	d8c02a17 	ldw	r3,168(sp)
   44b50:	18c00084 	addi	r3,r3,2
   44b54:	d8c02b15 	stw	r3,172(sp)
   44b58:	1805883a 	mov	r2,r3
   44b5c:	183d970e 	bge	r3,zero,441bc <__alt_data_end+0xfffd829c>
   44b60:	003fd706 	br	44ac0 <__alt_data_end+0xfffd8ba0>
   44b64:	0005883a 	mov	r2,zero
   44b68:	003f8f06 	br	449a8 <__alt_data_end+0xfffd8a88>
   44b6c:	9080004c 	andi	r2,r18,1
   44b70:	103f821e 	bne	r2,zero,4497c <__alt_data_end+0xfffd8a5c>
   44b74:	d8802117 	ldw	r2,132(sp)
   44b78:	1405c83a 	sub	r2,r2,r16
   44b7c:	d8803315 	stw	r2,204(sp)
   44b80:	b47ef426 	beq	r22,r17,44754 <__alt_data_end+0xfffd8834>
   44b84:	dd802617 	ldw	r22,152(sp)
   44b88:	003f1206 	br	447d4 <__alt_data_end+0xfffd88b4>
   44b8c:	d8c02b03 	ldbu	r3,172(sp)
   44b90:	d8c02785 	stb	r3,158(sp)
   44b94:	0038df06 	br	42f14 <__alt_data_end+0xfffd6ff4>
   44b98:	d8c02b03 	ldbu	r3,172(sp)
   44b9c:	d8c02785 	stb	r3,158(sp)
   44ba0:	0038aa06 	br	42e4c <__alt_data_end+0xfffd6f2c>
   44ba4:	d8c02b03 	ldbu	r3,172(sp)
   44ba8:	d8c02785 	stb	r3,158(sp)
   44bac:	003a4306 	br	434bc <__alt_data_end+0xfffd759c>
   44bb0:	d8c02b03 	ldbu	r3,172(sp)
   44bb4:	d8c02785 	stb	r3,158(sp)
   44bb8:	003af506 	br	43790 <__alt_data_end+0xfffd7870>
   44bbc:	0005883a 	mov	r2,zero
   44bc0:	003d7b06 	br	441b0 <__alt_data_end+0xfffd8290>
   44bc4:	d8802344 	addi	r2,sp,141
   44bc8:	003f1006 	br	4480c <__alt_data_end+0xfffd88ec>
   44bcc:	d8c02b03 	ldbu	r3,172(sp)
   44bd0:	d8c02785 	stb	r3,158(sp)
   44bd4:	0038fd06 	br	42fcc <__alt_data_end+0xfffd70ac>
   44bd8:	d8c02b03 	ldbu	r3,172(sp)
   44bdc:	d8c02785 	stb	r3,158(sp)
   44be0:	003a9706 	br	43640 <__alt_data_end+0xfffd7720>
   44be4:	d8c02b03 	ldbu	r3,172(sp)
   44be8:	d8c02785 	stb	r3,158(sp)
   44bec:	003a1806 	br	43450 <__alt_data_end+0xfffd7530>
   44bf0:	d8c02b03 	ldbu	r3,172(sp)
   44bf4:	d8c02785 	stb	r3,158(sp)
   44bf8:	003abe06 	br	436f4 <__alt_data_end+0xfffd77d4>

00044bfc <__vfprintf_internal>:
   44bfc:	00800174 	movhi	r2,5
   44c00:	10897204 	addi	r2,r2,9672
   44c04:	300f883a 	mov	r7,r6
   44c08:	280d883a 	mov	r6,r5
   44c0c:	200b883a 	mov	r5,r4
   44c10:	11000017 	ldw	r4,0(r2)
   44c14:	00429201 	jmpi	42920 <___vfprintf_internal_r>

00044c18 <__sbprintf>:
   44c18:	2880030b 	ldhu	r2,12(r5)
   44c1c:	2ac01917 	ldw	r11,100(r5)
   44c20:	2a80038b 	ldhu	r10,14(r5)
   44c24:	2a400717 	ldw	r9,28(r5)
   44c28:	2a000917 	ldw	r8,36(r5)
   44c2c:	defee204 	addi	sp,sp,-1144
   44c30:	00c10004 	movi	r3,1024
   44c34:	dc011a15 	stw	r16,1128(sp)
   44c38:	10bfff4c 	andi	r2,r2,65533
   44c3c:	2821883a 	mov	r16,r5
   44c40:	d8cb883a 	add	r5,sp,r3
   44c44:	dc811c15 	stw	r18,1136(sp)
   44c48:	dc411b15 	stw	r17,1132(sp)
   44c4c:	dfc11d15 	stw	ra,1140(sp)
   44c50:	2025883a 	mov	r18,r4
   44c54:	d881030d 	sth	r2,1036(sp)
   44c58:	dac11915 	stw	r11,1124(sp)
   44c5c:	da81038d 	sth	r10,1038(sp)
   44c60:	da410715 	stw	r9,1052(sp)
   44c64:	da010915 	stw	r8,1060(sp)
   44c68:	dec10015 	stw	sp,1024(sp)
   44c6c:	dec10415 	stw	sp,1040(sp)
   44c70:	d8c10215 	stw	r3,1032(sp)
   44c74:	d8c10515 	stw	r3,1044(sp)
   44c78:	d8010615 	stw	zero,1048(sp)
   44c7c:	00429200 	call	42920 <___vfprintf_internal_r>
   44c80:	1023883a 	mov	r17,r2
   44c84:	10000416 	blt	r2,zero,44c98 <__sbprintf+0x80>
   44c88:	d9410004 	addi	r5,sp,1024
   44c8c:	9009883a 	mov	r4,r18
   44c90:	00407380 	call	40738 <_fflush_r>
   44c94:	10000d1e 	bne	r2,zero,44ccc <__sbprintf+0xb4>
   44c98:	d881030b 	ldhu	r2,1036(sp)
   44c9c:	1080100c 	andi	r2,r2,64
   44ca0:	10000326 	beq	r2,zero,44cb0 <__sbprintf+0x98>
   44ca4:	8080030b 	ldhu	r2,12(r16)
   44ca8:	10801014 	ori	r2,r2,64
   44cac:	8080030d 	sth	r2,12(r16)
   44cb0:	8805883a 	mov	r2,r17
   44cb4:	dfc11d17 	ldw	ra,1140(sp)
   44cb8:	dc811c17 	ldw	r18,1136(sp)
   44cbc:	dc411b17 	ldw	r17,1132(sp)
   44cc0:	dc011a17 	ldw	r16,1128(sp)
   44cc4:	dec11e04 	addi	sp,sp,1144
   44cc8:	f800283a 	ret
   44ccc:	047fffc4 	movi	r17,-1
   44cd0:	003ff106 	br	44c98 <__alt_data_end+0xfffd8d78>

00044cd4 <_write_r>:
   44cd4:	defffd04 	addi	sp,sp,-12
   44cd8:	2805883a 	mov	r2,r5
   44cdc:	dc000015 	stw	r16,0(sp)
   44ce0:	04000174 	movhi	r16,5
   44ce4:	dc400115 	stw	r17,4(sp)
   44ce8:	300b883a 	mov	r5,r6
   44cec:	84104704 	addi	r16,r16,16668
   44cf0:	2023883a 	mov	r17,r4
   44cf4:	380d883a 	mov	r6,r7
   44cf8:	1009883a 	mov	r4,r2
   44cfc:	dfc00215 	stw	ra,8(sp)
   44d00:	80000015 	stw	zero,0(r16)
   44d04:	004e8580 	call	4e858 <write>
   44d08:	00ffffc4 	movi	r3,-1
   44d0c:	10c00526 	beq	r2,r3,44d24 <_write_r+0x50>
   44d10:	dfc00217 	ldw	ra,8(sp)
   44d14:	dc400117 	ldw	r17,4(sp)
   44d18:	dc000017 	ldw	r16,0(sp)
   44d1c:	dec00304 	addi	sp,sp,12
   44d20:	f800283a 	ret
   44d24:	80c00017 	ldw	r3,0(r16)
   44d28:	183ff926 	beq	r3,zero,44d10 <__alt_data_end+0xfffd8df0>
   44d2c:	88c00015 	stw	r3,0(r17)
   44d30:	003ff706 	br	44d10 <__alt_data_end+0xfffd8df0>

00044d34 <__swsetup_r>:
   44d34:	00800174 	movhi	r2,5
   44d38:	defffd04 	addi	sp,sp,-12
   44d3c:	10897204 	addi	r2,r2,9672
   44d40:	dc400115 	stw	r17,4(sp)
   44d44:	2023883a 	mov	r17,r4
   44d48:	11000017 	ldw	r4,0(r2)
   44d4c:	dc000015 	stw	r16,0(sp)
   44d50:	dfc00215 	stw	ra,8(sp)
   44d54:	2821883a 	mov	r16,r5
   44d58:	20000226 	beq	r4,zero,44d64 <__swsetup_r+0x30>
   44d5c:	20800e17 	ldw	r2,56(r4)
   44d60:	10003126 	beq	r2,zero,44e28 <__swsetup_r+0xf4>
   44d64:	8080030b 	ldhu	r2,12(r16)
   44d68:	10c0020c 	andi	r3,r2,8
   44d6c:	1009883a 	mov	r4,r2
   44d70:	18000f26 	beq	r3,zero,44db0 <__swsetup_r+0x7c>
   44d74:	80c00417 	ldw	r3,16(r16)
   44d78:	18001526 	beq	r3,zero,44dd0 <__swsetup_r+0x9c>
   44d7c:	1100004c 	andi	r4,r2,1
   44d80:	20001c1e 	bne	r4,zero,44df4 <__swsetup_r+0xc0>
   44d84:	1080008c 	andi	r2,r2,2
   44d88:	1000291e 	bne	r2,zero,44e30 <__swsetup_r+0xfc>
   44d8c:	80800517 	ldw	r2,20(r16)
   44d90:	80800215 	stw	r2,8(r16)
   44d94:	18001c26 	beq	r3,zero,44e08 <__swsetup_r+0xd4>
   44d98:	0005883a 	mov	r2,zero
   44d9c:	dfc00217 	ldw	ra,8(sp)
   44da0:	dc400117 	ldw	r17,4(sp)
   44da4:	dc000017 	ldw	r16,0(sp)
   44da8:	dec00304 	addi	sp,sp,12
   44dac:	f800283a 	ret
   44db0:	2080040c 	andi	r2,r4,16
   44db4:	10002e26 	beq	r2,zero,44e70 <__swsetup_r+0x13c>
   44db8:	2080010c 	andi	r2,r4,4
   44dbc:	10001e1e 	bne	r2,zero,44e38 <__swsetup_r+0x104>
   44dc0:	80c00417 	ldw	r3,16(r16)
   44dc4:	20800214 	ori	r2,r4,8
   44dc8:	8080030d 	sth	r2,12(r16)
   44dcc:	183feb1e 	bne	r3,zero,44d7c <__alt_data_end+0xfffd8e5c>
   44dd0:	1100a00c 	andi	r4,r2,640
   44dd4:	01408004 	movi	r5,512
   44dd8:	217fe826 	beq	r4,r5,44d7c <__alt_data_end+0xfffd8e5c>
   44ddc:	800b883a 	mov	r5,r16
   44de0:	8809883a 	mov	r4,r17
   44de4:	004185c0 	call	4185c <__smakebuf_r>
   44de8:	8080030b 	ldhu	r2,12(r16)
   44dec:	80c00417 	ldw	r3,16(r16)
   44df0:	003fe206 	br	44d7c <__alt_data_end+0xfffd8e5c>
   44df4:	80800517 	ldw	r2,20(r16)
   44df8:	80000215 	stw	zero,8(r16)
   44dfc:	0085c83a 	sub	r2,zero,r2
   44e00:	80800615 	stw	r2,24(r16)
   44e04:	183fe41e 	bne	r3,zero,44d98 <__alt_data_end+0xfffd8e78>
   44e08:	80c0030b 	ldhu	r3,12(r16)
   44e0c:	0005883a 	mov	r2,zero
   44e10:	1900200c 	andi	r4,r3,128
   44e14:	203fe126 	beq	r4,zero,44d9c <__alt_data_end+0xfffd8e7c>
   44e18:	18c01014 	ori	r3,r3,64
   44e1c:	80c0030d 	sth	r3,12(r16)
   44e20:	00bfffc4 	movi	r2,-1
   44e24:	003fdd06 	br	44d9c <__alt_data_end+0xfffd8e7c>
   44e28:	0040b240 	call	40b24 <__sinit>
   44e2c:	003fcd06 	br	44d64 <__alt_data_end+0xfffd8e44>
   44e30:	0005883a 	mov	r2,zero
   44e34:	003fd606 	br	44d90 <__alt_data_end+0xfffd8e70>
   44e38:	81400c17 	ldw	r5,48(r16)
   44e3c:	28000626 	beq	r5,zero,44e58 <__swsetup_r+0x124>
   44e40:	80801004 	addi	r2,r16,64
   44e44:	28800326 	beq	r5,r2,44e54 <__swsetup_r+0x120>
   44e48:	8809883a 	mov	r4,r17
   44e4c:	0040df00 	call	40df0 <_free_r>
   44e50:	8100030b 	ldhu	r4,12(r16)
   44e54:	80000c15 	stw	zero,48(r16)
   44e58:	80c00417 	ldw	r3,16(r16)
   44e5c:	00bff6c4 	movi	r2,-37
   44e60:	1108703a 	and	r4,r2,r4
   44e64:	80000115 	stw	zero,4(r16)
   44e68:	80c00015 	stw	r3,0(r16)
   44e6c:	003fd506 	br	44dc4 <__alt_data_end+0xfffd8ea4>
   44e70:	00800244 	movi	r2,9
   44e74:	88800015 	stw	r2,0(r17)
   44e78:	20801014 	ori	r2,r4,64
   44e7c:	8080030d 	sth	r2,12(r16)
   44e80:	00bfffc4 	movi	r2,-1
   44e84:	003fc506 	br	44d9c <__alt_data_end+0xfffd8e7c>

00044e88 <_close_r>:
   44e88:	defffd04 	addi	sp,sp,-12
   44e8c:	dc000015 	stw	r16,0(sp)
   44e90:	04000174 	movhi	r16,5
   44e94:	dc400115 	stw	r17,4(sp)
   44e98:	84104704 	addi	r16,r16,16668
   44e9c:	2023883a 	mov	r17,r4
   44ea0:	2809883a 	mov	r4,r5
   44ea4:	dfc00215 	stw	ra,8(sp)
   44ea8:	80000015 	stw	zero,0(r16)
   44eac:	004dd7c0 	call	4dd7c <close>
   44eb0:	00ffffc4 	movi	r3,-1
   44eb4:	10c00526 	beq	r2,r3,44ecc <_close_r+0x44>
   44eb8:	dfc00217 	ldw	ra,8(sp)
   44ebc:	dc400117 	ldw	r17,4(sp)
   44ec0:	dc000017 	ldw	r16,0(sp)
   44ec4:	dec00304 	addi	sp,sp,12
   44ec8:	f800283a 	ret
   44ecc:	80c00017 	ldw	r3,0(r16)
   44ed0:	183ff926 	beq	r3,zero,44eb8 <__alt_data_end+0xfffd8f98>
   44ed4:	88c00015 	stw	r3,0(r17)
   44ed8:	003ff706 	br	44eb8 <__alt_data_end+0xfffd8f98>

00044edc <quorem>:
   44edc:	defff204 	addi	sp,sp,-56
   44ee0:	ddc00b15 	stw	r23,44(sp)
   44ee4:	20800417 	ldw	r2,16(r4)
   44ee8:	2dc00417 	ldw	r23,16(r5)
   44eec:	dfc00d15 	stw	ra,52(sp)
   44ef0:	df000c15 	stw	fp,48(sp)
   44ef4:	dd800a15 	stw	r22,40(sp)
   44ef8:	dd400915 	stw	r21,36(sp)
   44efc:	dd000815 	stw	r20,32(sp)
   44f00:	dcc00715 	stw	r19,28(sp)
   44f04:	dc800615 	stw	r18,24(sp)
   44f08:	dc400515 	stw	r17,20(sp)
   44f0c:	dc000415 	stw	r16,16(sp)
   44f10:	15c07a16 	blt	r2,r23,450fc <quorem+0x220>
   44f14:	bdffffc4 	addi	r23,r23,-1
   44f18:	bde9883a 	add	r20,r23,r23
   44f1c:	28c00504 	addi	r3,r5,20
   44f20:	a529883a 	add	r20,r20,r20
   44f24:	1d39883a 	add	fp,r3,r20
   44f28:	24c00504 	addi	r19,r4,20
   44f2c:	d9400215 	stw	r5,8(sp)
   44f30:	9d29883a 	add	r20,r19,r20
   44f34:	e1400017 	ldw	r5,0(fp)
   44f38:	d9000015 	stw	r4,0(sp)
   44f3c:	a1000017 	ldw	r4,0(r20)
   44f40:	29400044 	addi	r5,r5,1
   44f44:	d8c00115 	stw	r3,4(sp)
   44f48:	dd000315 	stw	r20,12(sp)
   44f4c:	004b3b80 	call	4b3b8 <__udivsi3>
   44f50:	1025883a 	mov	r18,r2
   44f54:	10003026 	beq	r2,zero,45018 <quorem+0x13c>
   44f58:	dc400117 	ldw	r17,4(sp)
   44f5c:	9829883a 	mov	r20,r19
   44f60:	002d883a 	mov	r22,zero
   44f64:	0021883a 	mov	r16,zero
   44f68:	8d400017 	ldw	r21,0(r17)
   44f6c:	900b883a 	mov	r5,r18
   44f70:	8c400104 	addi	r17,r17,4
   44f74:	a93fffcc 	andi	r4,r21,65535
   44f78:	004b4740 	call	4b474 <__mulsi3>
   44f7c:	a808d43a 	srli	r4,r21,16
   44f80:	900b883a 	mov	r5,r18
   44f84:	15ad883a 	add	r22,r2,r22
   44f88:	004b4740 	call	4b474 <__mulsi3>
   44f8c:	a1000017 	ldw	r4,0(r20)
   44f90:	b00cd43a 	srli	r6,r22,16
   44f94:	b0ffffcc 	andi	r3,r22,65535
   44f98:	217fffcc 	andi	r5,r4,65535
   44f9c:	2c21883a 	add	r16,r5,r16
   44fa0:	80c7c83a 	sub	r3,r16,r3
   44fa4:	2008d43a 	srli	r4,r4,16
   44fa8:	1185883a 	add	r2,r2,r6
   44fac:	1821d43a 	srai	r16,r3,16
   44fb0:	117fffcc 	andi	r5,r2,65535
   44fb4:	2149c83a 	sub	r4,r4,r5
   44fb8:	2421883a 	add	r16,r4,r16
   44fbc:	8008943a 	slli	r4,r16,16
   44fc0:	18ffffcc 	andi	r3,r3,65535
   44fc4:	102cd43a 	srli	r22,r2,16
   44fc8:	20c8b03a 	or	r4,r4,r3
   44fcc:	a1000015 	stw	r4,0(r20)
   44fd0:	8021d43a 	srai	r16,r16,16
   44fd4:	a5000104 	addi	r20,r20,4
   44fd8:	e47fe32e 	bgeu	fp,r17,44f68 <__alt_data_end+0xfffd9048>
   44fdc:	d8c00317 	ldw	r3,12(sp)
   44fe0:	18800017 	ldw	r2,0(r3)
   44fe4:	10000c1e 	bne	r2,zero,45018 <quorem+0x13c>
   44fe8:	18bfff04 	addi	r2,r3,-4
   44fec:	9880082e 	bgeu	r19,r2,45010 <quorem+0x134>
   44ff0:	18ffff17 	ldw	r3,-4(r3)
   44ff4:	18000326 	beq	r3,zero,45004 <quorem+0x128>
   44ff8:	00000506 	br	45010 <quorem+0x134>
   44ffc:	10c00017 	ldw	r3,0(r2)
   45000:	1800031e 	bne	r3,zero,45010 <quorem+0x134>
   45004:	10bfff04 	addi	r2,r2,-4
   45008:	bdffffc4 	addi	r23,r23,-1
   4500c:	98bffb36 	bltu	r19,r2,44ffc <__alt_data_end+0xfffd90dc>
   45010:	d8c00017 	ldw	r3,0(sp)
   45014:	1dc00415 	stw	r23,16(r3)
   45018:	d9400217 	ldw	r5,8(sp)
   4501c:	d9000017 	ldw	r4,0(sp)
   45020:	0047b9c0 	call	47b9c <__mcmp>
   45024:	10002816 	blt	r2,zero,450c8 <quorem+0x1ec>
   45028:	dc400117 	ldw	r17,4(sp)
   4502c:	94800044 	addi	r18,r18,1
   45030:	980d883a 	mov	r6,r19
   45034:	0007883a 	mov	r3,zero
   45038:	31000017 	ldw	r4,0(r6)
   4503c:	89400017 	ldw	r5,0(r17)
   45040:	31800104 	addi	r6,r6,4
   45044:	20bfffcc 	andi	r2,r4,65535
   45048:	10c7883a 	add	r3,r2,r3
   4504c:	28bfffcc 	andi	r2,r5,65535
   45050:	1885c83a 	sub	r2,r3,r2
   45054:	280ad43a 	srli	r5,r5,16
   45058:	2008d43a 	srli	r4,r4,16
   4505c:	1007d43a 	srai	r3,r2,16
   45060:	10bfffcc 	andi	r2,r2,65535
   45064:	2149c83a 	sub	r4,r4,r5
   45068:	20c9883a 	add	r4,r4,r3
   4506c:	200a943a 	slli	r5,r4,16
   45070:	8c400104 	addi	r17,r17,4
   45074:	2007d43a 	srai	r3,r4,16
   45078:	2884b03a 	or	r2,r5,r2
   4507c:	30bfff15 	stw	r2,-4(r6)
   45080:	e47fed2e 	bgeu	fp,r17,45038 <__alt_data_end+0xfffd9118>
   45084:	bdc5883a 	add	r2,r23,r23
   45088:	1085883a 	add	r2,r2,r2
   4508c:	9887883a 	add	r3,r19,r2
   45090:	18800017 	ldw	r2,0(r3)
   45094:	10000c1e 	bne	r2,zero,450c8 <quorem+0x1ec>
   45098:	18bfff04 	addi	r2,r3,-4
   4509c:	9880082e 	bgeu	r19,r2,450c0 <quorem+0x1e4>
   450a0:	18ffff17 	ldw	r3,-4(r3)
   450a4:	18000326 	beq	r3,zero,450b4 <quorem+0x1d8>
   450a8:	00000506 	br	450c0 <quorem+0x1e4>
   450ac:	10c00017 	ldw	r3,0(r2)
   450b0:	1800031e 	bne	r3,zero,450c0 <quorem+0x1e4>
   450b4:	10bfff04 	addi	r2,r2,-4
   450b8:	bdffffc4 	addi	r23,r23,-1
   450bc:	98bffb36 	bltu	r19,r2,450ac <__alt_data_end+0xfffd918c>
   450c0:	d8c00017 	ldw	r3,0(sp)
   450c4:	1dc00415 	stw	r23,16(r3)
   450c8:	9005883a 	mov	r2,r18
   450cc:	dfc00d17 	ldw	ra,52(sp)
   450d0:	df000c17 	ldw	fp,48(sp)
   450d4:	ddc00b17 	ldw	r23,44(sp)
   450d8:	dd800a17 	ldw	r22,40(sp)
   450dc:	dd400917 	ldw	r21,36(sp)
   450e0:	dd000817 	ldw	r20,32(sp)
   450e4:	dcc00717 	ldw	r19,28(sp)
   450e8:	dc800617 	ldw	r18,24(sp)
   450ec:	dc400517 	ldw	r17,20(sp)
   450f0:	dc000417 	ldw	r16,16(sp)
   450f4:	dec00e04 	addi	sp,sp,56
   450f8:	f800283a 	ret
   450fc:	0005883a 	mov	r2,zero
   45100:	003ff206 	br	450cc <__alt_data_end+0xfffd91ac>

00045104 <_dtoa_r>:
   45104:	20801017 	ldw	r2,64(r4)
   45108:	deffde04 	addi	sp,sp,-136
   4510c:	df002015 	stw	fp,128(sp)
   45110:	dcc01b15 	stw	r19,108(sp)
   45114:	dc801a15 	stw	r18,104(sp)
   45118:	dc401915 	stw	r17,100(sp)
   4511c:	dc001815 	stw	r16,96(sp)
   45120:	dfc02115 	stw	ra,132(sp)
   45124:	ddc01f15 	stw	r23,124(sp)
   45128:	dd801e15 	stw	r22,120(sp)
   4512c:	dd401d15 	stw	r21,116(sp)
   45130:	dd001c15 	stw	r20,112(sp)
   45134:	d9c00315 	stw	r7,12(sp)
   45138:	2039883a 	mov	fp,r4
   4513c:	3023883a 	mov	r17,r6
   45140:	2825883a 	mov	r18,r5
   45144:	dc002417 	ldw	r16,144(sp)
   45148:	3027883a 	mov	r19,r6
   4514c:	10000826 	beq	r2,zero,45170 <_dtoa_r+0x6c>
   45150:	21801117 	ldw	r6,68(r4)
   45154:	00c00044 	movi	r3,1
   45158:	100b883a 	mov	r5,r2
   4515c:	1986983a 	sll	r3,r3,r6
   45160:	11800115 	stw	r6,4(r2)
   45164:	10c00215 	stw	r3,8(r2)
   45168:	00472c00 	call	472c0 <_Bfree>
   4516c:	e0001015 	stw	zero,64(fp)
   45170:	88002e16 	blt	r17,zero,4522c <_dtoa_r+0x128>
   45174:	80000015 	stw	zero,0(r16)
   45178:	889ffc2c 	andhi	r2,r17,32752
   4517c:	00dffc34 	movhi	r3,32752
   45180:	10c01c26 	beq	r2,r3,451f4 <_dtoa_r+0xf0>
   45184:	000d883a 	mov	r6,zero
   45188:	000f883a 	mov	r7,zero
   4518c:	9009883a 	mov	r4,r18
   45190:	980b883a 	mov	r5,r19
   45194:	004c7180 	call	4c718 <__eqdf2>
   45198:	10002b1e 	bne	r2,zero,45248 <_dtoa_r+0x144>
   4519c:	d9c02317 	ldw	r7,140(sp)
   451a0:	00800044 	movi	r2,1
   451a4:	38800015 	stw	r2,0(r7)
   451a8:	d8802517 	ldw	r2,148(sp)
   451ac:	10019e26 	beq	r2,zero,45828 <_dtoa_r+0x724>
   451b0:	d8c02517 	ldw	r3,148(sp)
   451b4:	00800174 	movhi	r2,5
   451b8:	10820944 	addi	r2,r2,2085
   451bc:	18800015 	stw	r2,0(r3)
   451c0:	10bfffc4 	addi	r2,r2,-1
   451c4:	dfc02117 	ldw	ra,132(sp)
   451c8:	df002017 	ldw	fp,128(sp)
   451cc:	ddc01f17 	ldw	r23,124(sp)
   451d0:	dd801e17 	ldw	r22,120(sp)
   451d4:	dd401d17 	ldw	r21,116(sp)
   451d8:	dd001c17 	ldw	r20,112(sp)
   451dc:	dcc01b17 	ldw	r19,108(sp)
   451e0:	dc801a17 	ldw	r18,104(sp)
   451e4:	dc401917 	ldw	r17,100(sp)
   451e8:	dc001817 	ldw	r16,96(sp)
   451ec:	dec02204 	addi	sp,sp,136
   451f0:	f800283a 	ret
   451f4:	d8c02317 	ldw	r3,140(sp)
   451f8:	0089c3c4 	movi	r2,9999
   451fc:	18800015 	stw	r2,0(r3)
   45200:	90017726 	beq	r18,zero,457e0 <_dtoa_r+0x6dc>
   45204:	00800174 	movhi	r2,5
   45208:	10821504 	addi	r2,r2,2132
   4520c:	d9002517 	ldw	r4,148(sp)
   45210:	203fec26 	beq	r4,zero,451c4 <__alt_data_end+0xfffd92a4>
   45214:	10c000c7 	ldb	r3,3(r2)
   45218:	1801781e 	bne	r3,zero,457fc <_dtoa_r+0x6f8>
   4521c:	10c000c4 	addi	r3,r2,3
   45220:	d9802517 	ldw	r6,148(sp)
   45224:	30c00015 	stw	r3,0(r6)
   45228:	003fe606 	br	451c4 <__alt_data_end+0xfffd92a4>
   4522c:	04e00034 	movhi	r19,32768
   45230:	9cffffc4 	addi	r19,r19,-1
   45234:	00800044 	movi	r2,1
   45238:	8ce6703a 	and	r19,r17,r19
   4523c:	80800015 	stw	r2,0(r16)
   45240:	9823883a 	mov	r17,r19
   45244:	003fcc06 	br	45178 <__alt_data_end+0xfffd9258>
   45248:	d8800204 	addi	r2,sp,8
   4524c:	d8800015 	stw	r2,0(sp)
   45250:	d9c00104 	addi	r7,sp,4
   45254:	900b883a 	mov	r5,r18
   45258:	980d883a 	mov	r6,r19
   4525c:	e009883a 	mov	r4,fp
   45260:	8820d53a 	srli	r16,r17,20
   45264:	0047f680 	call	47f68 <__d2b>
   45268:	d8800915 	stw	r2,36(sp)
   4526c:	8001651e 	bne	r16,zero,45804 <_dtoa_r+0x700>
   45270:	dd800217 	ldw	r22,8(sp)
   45274:	dc000117 	ldw	r16,4(sp)
   45278:	00800804 	movi	r2,32
   4527c:	b421883a 	add	r16,r22,r16
   45280:	80c10c84 	addi	r3,r16,1074
   45284:	10c2d10e 	bge	r2,r3,45dcc <_dtoa_r+0xcc8>
   45288:	00801004 	movi	r2,64
   4528c:	81010484 	addi	r4,r16,1042
   45290:	10c7c83a 	sub	r3,r2,r3
   45294:	9108d83a 	srl	r4,r18,r4
   45298:	88e2983a 	sll	r17,r17,r3
   4529c:	2448b03a 	or	r4,r4,r17
   452a0:	004dc340 	call	4dc34 <__floatunsidf>
   452a4:	017f8434 	movhi	r5,65040
   452a8:	01800044 	movi	r6,1
   452ac:	1009883a 	mov	r4,r2
   452b0:	194b883a 	add	r5,r3,r5
   452b4:	843fffc4 	addi	r16,r16,-1
   452b8:	d9801115 	stw	r6,68(sp)
   452bc:	000d883a 	mov	r6,zero
   452c0:	01cffe34 	movhi	r7,16376
   452c4:	004d1dc0 	call	4d1dc <__subdf3>
   452c8:	0198dbf4 	movhi	r6,25455
   452cc:	01cff4f4 	movhi	r7,16339
   452d0:	3190d844 	addi	r6,r6,17249
   452d4:	39e1e9c4 	addi	r7,r7,-30809
   452d8:	1009883a 	mov	r4,r2
   452dc:	180b883a 	mov	r5,r3
   452e0:	004c9700 	call	4c970 <__muldf3>
   452e4:	01a2d874 	movhi	r6,35681
   452e8:	01cff1f4 	movhi	r7,16327
   452ec:	31b22cc4 	addi	r6,r6,-14157
   452f0:	39e28a04 	addi	r7,r7,-30168
   452f4:	180b883a 	mov	r5,r3
   452f8:	1009883a 	mov	r4,r2
   452fc:	004b49c0 	call	4b49c <__adddf3>
   45300:	8009883a 	mov	r4,r16
   45304:	1029883a 	mov	r20,r2
   45308:	1823883a 	mov	r17,r3
   4530c:	004db580 	call	4db58 <__floatsidf>
   45310:	019427f4 	movhi	r6,20639
   45314:	01cff4f4 	movhi	r7,16339
   45318:	319e7ec4 	addi	r6,r6,31227
   4531c:	39d104c4 	addi	r7,r7,17427
   45320:	1009883a 	mov	r4,r2
   45324:	180b883a 	mov	r5,r3
   45328:	004c9700 	call	4c970 <__muldf3>
   4532c:	100d883a 	mov	r6,r2
   45330:	180f883a 	mov	r7,r3
   45334:	a009883a 	mov	r4,r20
   45338:	880b883a 	mov	r5,r17
   4533c:	004b49c0 	call	4b49c <__adddf3>
   45340:	1009883a 	mov	r4,r2
   45344:	180b883a 	mov	r5,r3
   45348:	1029883a 	mov	r20,r2
   4534c:	1823883a 	mov	r17,r3
   45350:	004dad80 	call	4dad8 <__fixdfsi>
   45354:	000d883a 	mov	r6,zero
   45358:	000f883a 	mov	r7,zero
   4535c:	a009883a 	mov	r4,r20
   45360:	880b883a 	mov	r5,r17
   45364:	d8800515 	stw	r2,20(sp)
   45368:	004c87c0 	call	4c87c <__ledf2>
   4536c:	10028716 	blt	r2,zero,45d8c <_dtoa_r+0xc88>
   45370:	d8c00517 	ldw	r3,20(sp)
   45374:	00800584 	movi	r2,22
   45378:	10c27536 	bltu	r2,r3,45d50 <_dtoa_r+0xc4c>
   4537c:	180490fa 	slli	r2,r3,3
   45380:	00c00174 	movhi	r3,5
   45384:	18c23004 	addi	r3,r3,2240
   45388:	1885883a 	add	r2,r3,r2
   4538c:	11000017 	ldw	r4,0(r2)
   45390:	11400117 	ldw	r5,4(r2)
   45394:	900d883a 	mov	r6,r18
   45398:	980f883a 	mov	r7,r19
   4539c:	004c7a00 	call	4c7a0 <__gedf2>
   453a0:	00828d0e 	bge	zero,r2,45dd8 <_dtoa_r+0xcd4>
   453a4:	d9000517 	ldw	r4,20(sp)
   453a8:	d8000e15 	stw	zero,56(sp)
   453ac:	213fffc4 	addi	r4,r4,-1
   453b0:	d9000515 	stw	r4,20(sp)
   453b4:	b42dc83a 	sub	r22,r22,r16
   453b8:	b5bfffc4 	addi	r22,r22,-1
   453bc:	b0026f16 	blt	r22,zero,45d7c <_dtoa_r+0xc78>
   453c0:	d8000815 	stw	zero,32(sp)
   453c4:	d9c00517 	ldw	r7,20(sp)
   453c8:	38026416 	blt	r7,zero,45d5c <_dtoa_r+0xc58>
   453cc:	b1ed883a 	add	r22,r22,r7
   453d0:	d9c00d15 	stw	r7,52(sp)
   453d4:	d8000a15 	stw	zero,40(sp)
   453d8:	d9800317 	ldw	r6,12(sp)
   453dc:	00800244 	movi	r2,9
   453e0:	11811436 	bltu	r2,r6,45834 <_dtoa_r+0x730>
   453e4:	00800144 	movi	r2,5
   453e8:	1184e10e 	bge	r2,r6,46770 <_dtoa_r+0x166c>
   453ec:	31bfff04 	addi	r6,r6,-4
   453f0:	d9800315 	stw	r6,12(sp)
   453f4:	0023883a 	mov	r17,zero
   453f8:	d9800317 	ldw	r6,12(sp)
   453fc:	008000c4 	movi	r2,3
   45400:	30836726 	beq	r6,r2,461a0 <_dtoa_r+0x109c>
   45404:	1183410e 	bge	r2,r6,4610c <_dtoa_r+0x1008>
   45408:	d9c00317 	ldw	r7,12(sp)
   4540c:	00800104 	movi	r2,4
   45410:	38827c26 	beq	r7,r2,45e04 <_dtoa_r+0xd00>
   45414:	00800144 	movi	r2,5
   45418:	3884c41e 	bne	r7,r2,4672c <_dtoa_r+0x1628>
   4541c:	00800044 	movi	r2,1
   45420:	d8800b15 	stw	r2,44(sp)
   45424:	d8c00517 	ldw	r3,20(sp)
   45428:	d9002217 	ldw	r4,136(sp)
   4542c:	1907883a 	add	r3,r3,r4
   45430:	19800044 	addi	r6,r3,1
   45434:	d8c00c15 	stw	r3,48(sp)
   45438:	d9800615 	stw	r6,24(sp)
   4543c:	0183a40e 	bge	zero,r6,462d0 <_dtoa_r+0x11cc>
   45440:	d9800617 	ldw	r6,24(sp)
   45444:	3021883a 	mov	r16,r6
   45448:	e0001115 	stw	zero,68(fp)
   4544c:	008005c4 	movi	r2,23
   45450:	1184c92e 	bgeu	r2,r6,46778 <_dtoa_r+0x1674>
   45454:	00c00044 	movi	r3,1
   45458:	00800104 	movi	r2,4
   4545c:	1085883a 	add	r2,r2,r2
   45460:	11000504 	addi	r4,r2,20
   45464:	180b883a 	mov	r5,r3
   45468:	18c00044 	addi	r3,r3,1
   4546c:	313ffb2e 	bgeu	r6,r4,4545c <__alt_data_end+0xfffd953c>
   45470:	e1401115 	stw	r5,68(fp)
   45474:	e009883a 	mov	r4,fp
   45478:	00472180 	call	47218 <_Balloc>
   4547c:	d8800715 	stw	r2,28(sp)
   45480:	e0801015 	stw	r2,64(fp)
   45484:	00800384 	movi	r2,14
   45488:	1400f736 	bltu	r2,r16,45868 <_dtoa_r+0x764>
   4548c:	8800f626 	beq	r17,zero,45868 <_dtoa_r+0x764>
   45490:	d9c00517 	ldw	r7,20(sp)
   45494:	01c39a0e 	bge	zero,r7,46300 <_dtoa_r+0x11fc>
   45498:	388003cc 	andi	r2,r7,15
   4549c:	100490fa 	slli	r2,r2,3
   454a0:	382bd13a 	srai	r21,r7,4
   454a4:	00c00174 	movhi	r3,5
   454a8:	18c23004 	addi	r3,r3,2240
   454ac:	1885883a 	add	r2,r3,r2
   454b0:	a8c0040c 	andi	r3,r21,16
   454b4:	12400017 	ldw	r9,0(r2)
   454b8:	12000117 	ldw	r8,4(r2)
   454bc:	18037926 	beq	r3,zero,462a4 <_dtoa_r+0x11a0>
   454c0:	00800174 	movhi	r2,5
   454c4:	10822604 	addi	r2,r2,2200
   454c8:	11800817 	ldw	r6,32(r2)
   454cc:	11c00917 	ldw	r7,36(r2)
   454d0:	9009883a 	mov	r4,r18
   454d4:	980b883a 	mov	r5,r19
   454d8:	da001715 	stw	r8,92(sp)
   454dc:	da401615 	stw	r9,88(sp)
   454e0:	004bd480 	call	4bd48 <__divdf3>
   454e4:	da001717 	ldw	r8,92(sp)
   454e8:	da401617 	ldw	r9,88(sp)
   454ec:	ad4003cc 	andi	r21,r21,15
   454f0:	040000c4 	movi	r16,3
   454f4:	1023883a 	mov	r17,r2
   454f8:	1829883a 	mov	r20,r3
   454fc:	a8001126 	beq	r21,zero,45544 <_dtoa_r+0x440>
   45500:	05c00174 	movhi	r23,5
   45504:	bdc22604 	addi	r23,r23,2200
   45508:	4805883a 	mov	r2,r9
   4550c:	4007883a 	mov	r3,r8
   45510:	a980004c 	andi	r6,r21,1
   45514:	1009883a 	mov	r4,r2
   45518:	a82bd07a 	srai	r21,r21,1
   4551c:	180b883a 	mov	r5,r3
   45520:	30000426 	beq	r6,zero,45534 <_dtoa_r+0x430>
   45524:	b9800017 	ldw	r6,0(r23)
   45528:	b9c00117 	ldw	r7,4(r23)
   4552c:	84000044 	addi	r16,r16,1
   45530:	004c9700 	call	4c970 <__muldf3>
   45534:	bdc00204 	addi	r23,r23,8
   45538:	a83ff51e 	bne	r21,zero,45510 <__alt_data_end+0xfffd95f0>
   4553c:	1013883a 	mov	r9,r2
   45540:	1811883a 	mov	r8,r3
   45544:	480d883a 	mov	r6,r9
   45548:	400f883a 	mov	r7,r8
   4554c:	8809883a 	mov	r4,r17
   45550:	a00b883a 	mov	r5,r20
   45554:	004bd480 	call	4bd48 <__divdf3>
   45558:	d8800f15 	stw	r2,60(sp)
   4555c:	d8c01015 	stw	r3,64(sp)
   45560:	d8c00e17 	ldw	r3,56(sp)
   45564:	18000626 	beq	r3,zero,45580 <_dtoa_r+0x47c>
   45568:	d9000f17 	ldw	r4,60(sp)
   4556c:	d9401017 	ldw	r5,64(sp)
   45570:	000d883a 	mov	r6,zero
   45574:	01cffc34 	movhi	r7,16368
   45578:	004c87c0 	call	4c87c <__ledf2>
   4557c:	10040b16 	blt	r2,zero,465ac <_dtoa_r+0x14a8>
   45580:	8009883a 	mov	r4,r16
   45584:	004db580 	call	4db58 <__floatsidf>
   45588:	d9800f17 	ldw	r6,60(sp)
   4558c:	d9c01017 	ldw	r7,64(sp)
   45590:	1009883a 	mov	r4,r2
   45594:	180b883a 	mov	r5,r3
   45598:	004c9700 	call	4c970 <__muldf3>
   4559c:	000d883a 	mov	r6,zero
   455a0:	01d00734 	movhi	r7,16412
   455a4:	1009883a 	mov	r4,r2
   455a8:	180b883a 	mov	r5,r3
   455ac:	004b49c0 	call	4b49c <__adddf3>
   455b0:	1021883a 	mov	r16,r2
   455b4:	d8800617 	ldw	r2,24(sp)
   455b8:	047f3034 	movhi	r17,64704
   455bc:	1c63883a 	add	r17,r3,r17
   455c0:	10031826 	beq	r2,zero,46224 <_dtoa_r+0x1120>
   455c4:	d8c00517 	ldw	r3,20(sp)
   455c8:	db000617 	ldw	r12,24(sp)
   455cc:	d8c01315 	stw	r3,76(sp)
   455d0:	d9000b17 	ldw	r4,44(sp)
   455d4:	20038f26 	beq	r4,zero,46414 <_dtoa_r+0x1310>
   455d8:	60bfffc4 	addi	r2,r12,-1
   455dc:	100490fa 	slli	r2,r2,3
   455e0:	00c00174 	movhi	r3,5
   455e4:	18c23004 	addi	r3,r3,2240
   455e8:	1885883a 	add	r2,r3,r2
   455ec:	11800017 	ldw	r6,0(r2)
   455f0:	11c00117 	ldw	r7,4(r2)
   455f4:	d8800717 	ldw	r2,28(sp)
   455f8:	0009883a 	mov	r4,zero
   455fc:	014ff834 	movhi	r5,16352
   45600:	db001615 	stw	r12,88(sp)
   45604:	15c00044 	addi	r23,r2,1
   45608:	004bd480 	call	4bd48 <__divdf3>
   4560c:	800d883a 	mov	r6,r16
   45610:	880f883a 	mov	r7,r17
   45614:	1009883a 	mov	r4,r2
   45618:	180b883a 	mov	r5,r3
   4561c:	004d1dc0 	call	4d1dc <__subdf3>
   45620:	d9401017 	ldw	r5,64(sp)
   45624:	d9000f17 	ldw	r4,60(sp)
   45628:	102b883a 	mov	r21,r2
   4562c:	d8c01215 	stw	r3,72(sp)
   45630:	004dad80 	call	4dad8 <__fixdfsi>
   45634:	1009883a 	mov	r4,r2
   45638:	1029883a 	mov	r20,r2
   4563c:	004db580 	call	4db58 <__floatsidf>
   45640:	d9000f17 	ldw	r4,60(sp)
   45644:	d9401017 	ldw	r5,64(sp)
   45648:	100d883a 	mov	r6,r2
   4564c:	180f883a 	mov	r7,r3
   45650:	004d1dc0 	call	4d1dc <__subdf3>
   45654:	1823883a 	mov	r17,r3
   45658:	d8c00717 	ldw	r3,28(sp)
   4565c:	d9401217 	ldw	r5,72(sp)
   45660:	a2000c04 	addi	r8,r20,48
   45664:	1021883a 	mov	r16,r2
   45668:	1a000005 	stb	r8,0(r3)
   4566c:	800d883a 	mov	r6,r16
   45670:	880f883a 	mov	r7,r17
   45674:	a809883a 	mov	r4,r21
   45678:	4029883a 	mov	r20,r8
   4567c:	004c7a00 	call	4c7a0 <__gedf2>
   45680:	00841d16 	blt	zero,r2,466f8 <_dtoa_r+0x15f4>
   45684:	800d883a 	mov	r6,r16
   45688:	880f883a 	mov	r7,r17
   4568c:	0009883a 	mov	r4,zero
   45690:	014ffc34 	movhi	r5,16368
   45694:	004d1dc0 	call	4d1dc <__subdf3>
   45698:	d9401217 	ldw	r5,72(sp)
   4569c:	100d883a 	mov	r6,r2
   456a0:	180f883a 	mov	r7,r3
   456a4:	a809883a 	mov	r4,r21
   456a8:	004c7a00 	call	4c7a0 <__gedf2>
   456ac:	db001617 	ldw	r12,88(sp)
   456b0:	00840e16 	blt	zero,r2,466ec <_dtoa_r+0x15e8>
   456b4:	00800044 	movi	r2,1
   456b8:	13006b0e 	bge	r2,r12,45868 <_dtoa_r+0x764>
   456bc:	d9000717 	ldw	r4,28(sp)
   456c0:	dd800f15 	stw	r22,60(sp)
   456c4:	dcc01015 	stw	r19,64(sp)
   456c8:	2319883a 	add	r12,r4,r12
   456cc:	dcc01217 	ldw	r19,72(sp)
   456d0:	602d883a 	mov	r22,r12
   456d4:	dc801215 	stw	r18,72(sp)
   456d8:	b825883a 	mov	r18,r23
   456dc:	00000906 	br	45704 <_dtoa_r+0x600>
   456e0:	004d1dc0 	call	4d1dc <__subdf3>
   456e4:	a80d883a 	mov	r6,r21
   456e8:	980f883a 	mov	r7,r19
   456ec:	1009883a 	mov	r4,r2
   456f0:	180b883a 	mov	r5,r3
   456f4:	004c87c0 	call	4c87c <__ledf2>
   456f8:	1003e816 	blt	r2,zero,4669c <_dtoa_r+0x1598>
   456fc:	b825883a 	mov	r18,r23
   45700:	bd83e926 	beq	r23,r22,466a8 <_dtoa_r+0x15a4>
   45704:	a809883a 	mov	r4,r21
   45708:	980b883a 	mov	r5,r19
   4570c:	000d883a 	mov	r6,zero
   45710:	01d00934 	movhi	r7,16420
   45714:	004c9700 	call	4c970 <__muldf3>
   45718:	000d883a 	mov	r6,zero
   4571c:	01d00934 	movhi	r7,16420
   45720:	8009883a 	mov	r4,r16
   45724:	880b883a 	mov	r5,r17
   45728:	102b883a 	mov	r21,r2
   4572c:	1827883a 	mov	r19,r3
   45730:	004c9700 	call	4c970 <__muldf3>
   45734:	180b883a 	mov	r5,r3
   45738:	1009883a 	mov	r4,r2
   4573c:	1821883a 	mov	r16,r3
   45740:	1023883a 	mov	r17,r2
   45744:	004dad80 	call	4dad8 <__fixdfsi>
   45748:	1009883a 	mov	r4,r2
   4574c:	1029883a 	mov	r20,r2
   45750:	004db580 	call	4db58 <__floatsidf>
   45754:	8809883a 	mov	r4,r17
   45758:	800b883a 	mov	r5,r16
   4575c:	100d883a 	mov	r6,r2
   45760:	180f883a 	mov	r7,r3
   45764:	004d1dc0 	call	4d1dc <__subdf3>
   45768:	a5000c04 	addi	r20,r20,48
   4576c:	a80d883a 	mov	r6,r21
   45770:	980f883a 	mov	r7,r19
   45774:	1009883a 	mov	r4,r2
   45778:	180b883a 	mov	r5,r3
   4577c:	95000005 	stb	r20,0(r18)
   45780:	1021883a 	mov	r16,r2
   45784:	1823883a 	mov	r17,r3
   45788:	004c87c0 	call	4c87c <__ledf2>
   4578c:	bdc00044 	addi	r23,r23,1
   45790:	800d883a 	mov	r6,r16
   45794:	880f883a 	mov	r7,r17
   45798:	0009883a 	mov	r4,zero
   4579c:	014ffc34 	movhi	r5,16368
   457a0:	103fcf0e 	bge	r2,zero,456e0 <__alt_data_end+0xfffd97c0>
   457a4:	d8c01317 	ldw	r3,76(sp)
   457a8:	d8c00515 	stw	r3,20(sp)
   457ac:	d9400917 	ldw	r5,36(sp)
   457b0:	e009883a 	mov	r4,fp
   457b4:	00472c00 	call	472c0 <_Bfree>
   457b8:	d9000517 	ldw	r4,20(sp)
   457bc:	d9802317 	ldw	r6,140(sp)
   457c0:	d9c02517 	ldw	r7,148(sp)
   457c4:	b8000005 	stb	zero,0(r23)
   457c8:	20800044 	addi	r2,r4,1
   457cc:	30800015 	stw	r2,0(r6)
   457d0:	3802aa26 	beq	r7,zero,4627c <_dtoa_r+0x1178>
   457d4:	3dc00015 	stw	r23,0(r7)
   457d8:	d8800717 	ldw	r2,28(sp)
   457dc:	003e7906 	br	451c4 <__alt_data_end+0xfffd92a4>
